;******************************************************************************
;* TI ARM C/C++ Codegen                                           Unix v5.2.5 *
;* Date/Time created: Fri May 13 14:57:25 2016                                *
;******************************************************************************
	.compiler_opts --abi=eabi --arm_vmrs_si_workaround=off --code_state=16 --diag_wrap=off --disable_dual_state --embedded_constants=on --endian=little --float_support=FPv4SPD16 --hll_source=on --object_format=elf --silicon_version=7M4 --symdebug:dwarf --symdebug:dwarf_version=3 --unaligned_access=on 
	.thumb

$C$DW$CU	.dwtag  DW_TAG_compile_unit
	.dwattr $C$DW$CU, DW_AT_name("../utils/ff.c")
	.dwattr $C$DW$CU, DW_AT_producer("TI TI ARM C/C++ Codegen Unix v5.2.5 Copyright (c) 1996-2015 Texas Instruments Incorporated")
	.dwattr $C$DW$CU, DW_AT_TI_version(0x01)
	.dwattr $C$DW$CU, DW_AT_comp_dir("/Users/thomas/Dropbox/Masterthesis/code/CCStudio_workspace/MSP432_DisplacementLogger_V1/Optimized")

$C$DW$1	.dwtag  DW_TAG_subprogram, DW_AT_name("get_fattime")
	.dwattr $C$DW$1, DW_AT_TI_symbol_name("get_fattime")
	.dwattr $C$DW$1, DW_AT_type(*$C$DW$T$21)
	.dwattr $C$DW$1, DW_AT_declaration
	.dwattr $C$DW$1, DW_AT_external
	.dwattr $C$DW$1, DW_AT_decl_file("../utils/ff.h")
	.dwattr $C$DW$1, DW_AT_decl_line(0xfd)
	.dwattr $C$DW$1, DW_AT_decl_column(0x07)

$C$DW$2	.dwtag  DW_TAG_subprogram, DW_AT_name("disk_initialize")
	.dwattr $C$DW$2, DW_AT_TI_symbol_name("disk_initialize")
	.dwattr $C$DW$2, DW_AT_type(*$C$DW$T$158)
	.dwattr $C$DW$2, DW_AT_declaration
	.dwattr $C$DW$2, DW_AT_external
	.dwattr $C$DW$2, DW_AT_decl_file("../utils/diskio.h")
	.dwattr $C$DW$2, DW_AT_decl_line(0x23)
	.dwattr $C$DW$2, DW_AT_decl_column(0x09)
$C$DW$3	.dwtag  DW_TAG_formal_parameter
	.dwattr $C$DW$3, DW_AT_type(*$C$DW$T$19)
	.dwendtag $C$DW$2


$C$DW$4	.dwtag  DW_TAG_subprogram, DW_AT_name("disk_status")
	.dwattr $C$DW$4, DW_AT_TI_symbol_name("disk_status")
	.dwattr $C$DW$4, DW_AT_type(*$C$DW$T$158)
	.dwattr $C$DW$4, DW_AT_declaration
	.dwattr $C$DW$4, DW_AT_external
	.dwattr $C$DW$4, DW_AT_decl_file("../utils/diskio.h")
	.dwattr $C$DW$4, DW_AT_decl_line(0x24)
	.dwattr $C$DW$4, DW_AT_decl_column(0x09)
$C$DW$5	.dwtag  DW_TAG_formal_parameter
	.dwattr $C$DW$5, DW_AT_type(*$C$DW$T$19)
	.dwendtag $C$DW$4


$C$DW$6	.dwtag  DW_TAG_subprogram, DW_AT_name("disk_read")
	.dwattr $C$DW$6, DW_AT_TI_symbol_name("disk_read")
	.dwattr $C$DW$6, DW_AT_type(*$C$DW$T$40)
	.dwattr $C$DW$6, DW_AT_declaration
	.dwattr $C$DW$6, DW_AT_external
	.dwattr $C$DW$6, DW_AT_decl_file("../utils/diskio.h")
	.dwattr $C$DW$6, DW_AT_decl_line(0x25)
	.dwattr $C$DW$6, DW_AT_decl_column(0x09)
$C$DW$7	.dwtag  DW_TAG_formal_parameter
	.dwattr $C$DW$7, DW_AT_type(*$C$DW$T$19)
$C$DW$8	.dwtag  DW_TAG_formal_parameter
	.dwattr $C$DW$8, DW_AT_type(*$C$DW$T$26)
$C$DW$9	.dwtag  DW_TAG_formal_parameter
	.dwattr $C$DW$9, DW_AT_type(*$C$DW$T$21)
$C$DW$10	.dwtag  DW_TAG_formal_parameter
	.dwattr $C$DW$10, DW_AT_type(*$C$DW$T$19)
	.dwendtag $C$DW$6


$C$DW$11	.dwtag  DW_TAG_subprogram, DW_AT_name("disk_write")
	.dwattr $C$DW$11, DW_AT_TI_symbol_name("disk_write")
	.dwattr $C$DW$11, DW_AT_type(*$C$DW$T$40)
	.dwattr $C$DW$11, DW_AT_declaration
	.dwattr $C$DW$11, DW_AT_external
	.dwattr $C$DW$11, DW_AT_decl_file("../utils/diskio.h")
	.dwattr $C$DW$11, DW_AT_decl_line(0x26)
	.dwattr $C$DW$11, DW_AT_decl_column(0x09)
$C$DW$12	.dwtag  DW_TAG_formal_parameter
	.dwattr $C$DW$12, DW_AT_type(*$C$DW$T$19)
$C$DW$13	.dwtag  DW_TAG_formal_parameter
	.dwattr $C$DW$13, DW_AT_type(*$C$DW$T$43)
$C$DW$14	.dwtag  DW_TAG_formal_parameter
	.dwattr $C$DW$14, DW_AT_type(*$C$DW$T$21)
$C$DW$15	.dwtag  DW_TAG_formal_parameter
	.dwattr $C$DW$15, DW_AT_type(*$C$DW$T$19)
	.dwendtag $C$DW$11


$C$DW$16	.dwtag  DW_TAG_subprogram, DW_AT_name("disk_ioctl")
	.dwattr $C$DW$16, DW_AT_TI_symbol_name("disk_ioctl")
	.dwattr $C$DW$16, DW_AT_type(*$C$DW$T$40)
	.dwattr $C$DW$16, DW_AT_declaration
	.dwattr $C$DW$16, DW_AT_external
	.dwattr $C$DW$16, DW_AT_decl_file("../utils/diskio.h")
	.dwattr $C$DW$16, DW_AT_decl_line(0x27)
	.dwattr $C$DW$16, DW_AT_decl_column(0x09)
$C$DW$17	.dwtag  DW_TAG_formal_parameter
	.dwattr $C$DW$17, DW_AT_type(*$C$DW$T$19)
$C$DW$18	.dwtag  DW_TAG_formal_parameter
	.dwattr $C$DW$18, DW_AT_type(*$C$DW$T$19)
$C$DW$19	.dwtag  DW_TAG_formal_parameter
	.dwattr $C$DW$19, DW_AT_type(*$C$DW$T$3)
	.dwendtag $C$DW$16

	.bss	||$O1$$||,8,4

;*********************************************************************
;* GROUPED GLOBALS FOR $O1$$                                         *
;*********************************************************************
Fsid:	.set	||$O1$$||+0
$C$DW$20	.dwtag  DW_TAG_variable, DW_AT_name("Fsid")
	.dwattr $C$DW$20, DW_AT_TI_symbol_name("Fsid")
	.dwattr $C$DW$20, DW_AT_type(*$C$DW$T$20)
	.dwattr $C$DW$20, DW_AT_location[DW_OP_addr Fsid]
	.dwattr $C$DW$20, DW_AT_decl_file("../utils/ff.c")
	.dwattr $C$DW$20, DW_AT_decl_line(0x1dc)
	.dwattr $C$DW$20, DW_AT_decl_column(0x06)
FatFs:	.set	||$O1$$||+4
$C$DW$21	.dwtag  DW_TAG_variable, DW_AT_name("FatFs")
	.dwattr $C$DW$21, DW_AT_TI_symbol_name("FatFs")
	.dwattr $C$DW$21, DW_AT_type(*$C$DW$T$130)
	.dwattr $C$DW$21, DW_AT_location[DW_OP_addr FatFs]
	.dwattr $C$DW$21, DW_AT_decl_file("../utils/ff.c")
	.dwattr $C$DW$21, DW_AT_decl_line(0x1d6)
	.dwattr $C$DW$21, DW_AT_decl_column(0x08)
	.sect	".const"
	.align	4
	.elfsym	||$O2$$||,SYM_SIZE(44)
||$O2$$||:
	.bits	1024,16			; $O2$$.vst$1[0] @ 0
	.bits	512,16			; $O2$$.vst$1[1] @ 16
	.bits	256,16			; $O2$$.vst$1[2] @ 32
	.bits	128,16			; $O2$$.vst$1[3] @ 48
	.bits	64,16			; $O2$$.vst$1[4] @ 64
	.bits	32,16			; $O2$$.vst$1[5] @ 80
	.bits	16,16			; $O2$$.vst$1[6] @ 96
	.bits	8,16			; $O2$$.vst$1[7] @ 112
	.bits	4,16			; $O2$$.vst$1[8] @ 128
	.bits	2,16			; $O2$$.vst$1[9] @ 144
	.bits	0,16			; $O2$$.vst$1[10] @ 160
	.bits	32768,16			; $O2$$.cst$2[0] @ 176
	.bits	16384,16			; $O2$$.cst$2[1] @ 192
	.bits	8192,16			; $O2$$.cst$2[2] @ 208
	.bits	4096,16			; $O2$$.cst$2[3] @ 224
	.bits	2048,16			; $O2$$.cst$2[4] @ 240
	.bits	16384,16			; $O2$$.cst$2[5] @ 256
	.bits	8192,16			; $O2$$.cst$2[6] @ 272
	.bits	4096,16			; $O2$$.cst$2[7] @ 288
	.bits	2048,16			; $O2$$.cst$2[8] @ 304
	.bits	1024,16			; $O2$$.cst$2[9] @ 320
	.bits	512,16			; $O2$$.cst$2[10] @ 336


;*********************************************************************
;* GROUPED GLOBALS FOR $O2$$                                         *
;*********************************************************************
vst$1:	.set	||$O2$$||+0
cst$2:	.set	||$O2$$||+22
;	/Applications/ti/ccsv6/tools/compiler/ti-cgt-arm_5.2.5/bin/armopt /var/tmp/24985g6lJaK /var/tmp/24985xGeLRA 
	.sect	".text"
	.align	8
	.clink
	.thumbfunc sync_window
	.thumb

$C$DW$22	.dwtag  DW_TAG_subprogram, DW_AT_name("sync_window")
	.dwattr $C$DW$22, DW_AT_low_pc(sync_window)
	.dwattr $C$DW$22, DW_AT_high_pc(0x00)
	.dwattr $C$DW$22, DW_AT_TI_symbol_name("sync_window")
	.dwattr $C$DW$22, DW_AT_type(*$C$DW$T$53)
	.dwattr $C$DW$22, DW_AT_TI_begin_file("../utils/ff.c")
	.dwattr $C$DW$22, DW_AT_TI_begin_line(0x2dc)
	.dwattr $C$DW$22, DW_AT_TI_begin_column(0x09)
	.dwattr $C$DW$22, DW_AT_decl_file("../utils/ff.c")
	.dwattr $C$DW$22, DW_AT_decl_line(0x2dc)
	.dwattr $C$DW$22, DW_AT_decl_column(0x09)
	.dwattr $C$DW$22, DW_AT_TI_max_frame_size(0x18)
	.dwpsn	file "../utils/ff.c",line 735,column 1,is_stmt,address sync_window,isa 1

	.dwfde $C$DW$CIE, sync_window
$C$DW$23	.dwtag  DW_TAG_formal_parameter, DW_AT_name("fs")
	.dwattr $C$DW$23, DW_AT_TI_symbol_name("fs")
	.dwattr $C$DW$23, DW_AT_type(*$C$DW$T$25)
	.dwattr $C$DW$23, DW_AT_location[DW_OP_reg0]

;*****************************************************************************
;* FUNCTION NAME: sync_window                                                *
;*                                                                           *
;*   Regs Modified     : A1,A2,A3,A4,V1,V2,V4,V5,V9,SP,LR,SR,D0,D0_hi,D1,    *
;*                           D1_hi,D2,D2_hi,D3,D3_hi,D4,D4_hi,D5,D5_hi,D6,   *
;*                           D6_hi,D7,D7_hi,FPEXC,FPSCR                      *
;*   Regs Used         : A1,A2,A3,A4,V1,V2,V4,V5,V9,SP,LR,SR,D0,D0_hi,D1,    *
;*                           D1_hi,D2,D2_hi,D3,D3_hi,D4,D4_hi,D5,D5_hi,D6,   *
;*                           D6_hi,D7,D7_hi,FPEXC,FPSCR                      *
;*   Local Frame Size  : 0 Args + 0 Auto + 20 Save = 20 byte                 *
;*****************************************************************************
sync_window:
;* --------------------------------------------------------------------------*
;* V4    assigned to $O$C1
;* A1    assigned to $O$C2
;* V5    assigned to $O$C3
;* V5    assigned to wsect
$C$DW$24	.dwtag  DW_TAG_variable, DW_AT_name("wsect")
	.dwattr $C$DW$24, DW_AT_TI_symbol_name("wsect")
	.dwattr $C$DW$24, DW_AT_type(*$C$DW$T$21)
	.dwattr $C$DW$24, DW_AT_location[DW_OP_reg8]
;* V1    assigned to fs
$C$DW$25	.dwtag  DW_TAG_variable, DW_AT_name("fs")
	.dwattr $C$DW$25, DW_AT_TI_symbol_name("fs")
	.dwattr $C$DW$25, DW_AT_type(*$C$DW$T$131)
	.dwattr $C$DW$25, DW_AT_location[DW_OP_reg4]
;* V4    assigned to $O$L1
;* V2    assigned to $O$K12
	.dwcfi	cfa_offset, 0
        PUSH      {A4, V1, V2, V4, V5, LR} ; [DPU_3_PIPE] 
	.dwcfi	cfa_offset, 24
	.dwcfi	save_reg_to_mem, 14, -4
	.dwcfi	save_reg_to_mem, 8, -8
	.dwcfi	save_reg_to_mem, 7, -12
	.dwcfi	save_reg_to_mem, 5, -16
	.dwcfi	save_reg_to_mem, 4, -20
	.dwcfi	save_reg_to_mem, 3, -24
        MOV       V1, A1                ; [DPU_3_PIPE] |735| 
	.dwpsn	file "../utils/ff.c",line 740,column 2,is_stmt,isa 1
        LDRB      A1, [V1, #4]          ; [DPU_3_PIPE] |740| 
        CBZ       A1, ||$C$L2||         ; [] 
        ; BRANCHCC OCCURS {||$C$L2||}    ; [] |740| 
;* --------------------------------------------------------------------------*
	.dwpsn	file "../utils/ff.c",line 741,column 3,is_stmt,isa 1
        LDR       V5, [V1, #48]         ; [DPU_3_PIPE] |741| 
	.dwpsn	file "../utils/ff.c",line 742,column 3,is_stmt,isa 1
        LDRB      A1, [V1, #1]          ; [DPU_3_PIPE] |742| 
        ADD       A2, V1, #52           ; [DPU_3_PIPE] |742| 
        MOVS      A4, #1                ; [DPU_3_PIPE] |742| 
        MOV       A3, V5                ; [DPU_3_PIPE] |742| 
$C$DW$26	.dwtag  DW_TAG_TI_branch
	.dwattr $C$DW$26, DW_AT_low_pc(0x00)
	.dwattr $C$DW$26, DW_AT_name("disk_write")
	.dwattr $C$DW$26, DW_AT_TI_call
        BL        disk_write            ; [DPU_3_PIPE] |742| 
        ; CALL OCCURS {disk_write }      ; [] |742| 
        ADD       V2, V1, #52           ; [DPU_3_PIPE] |742| 
        CMP       A1, #0                ; [DPU_3_PIPE] |742| 
        IT        NE                    ; [DPU_3_PIPE] 
	.dwpsn	file "../utils/ff.c",line 743,column 4,is_stmt,isa 1
        MOVNE     A1, #1                ; [DPU_3_PIPE] |743| 
        BNE       ||$C$L3||             ; [DPU_3_PIPE] |743| 
        ; BRANCHCC OCCURS {||$C$L3||}    ; [] |743| 
;* --------------------------------------------------------------------------*
	.dwpsn	file "../utils/ff.c",line 744,column 3,is_stmt,isa 1
        MOVS      A2, #0                ; [DPU_3_PIPE] |744| 
	.dwpsn	file "../utils/ff.c",line 745,column 3,is_stmt,isa 1
        LDR       A1, [V1, #36]         ; [DPU_3_PIPE] |745| 
	.dwpsn	file "../utils/ff.c",line 744,column 3,is_stmt,isa 1
        STRB      A2, [V1, #4]          ; [DPU_3_PIPE] |744| 
	.dwpsn	file "../utils/ff.c",line 745,column 3,is_stmt,isa 1
        CMP       A1, V5                ; [DPU_3_PIPE] |745| 
        BHI       ||$C$L2||             ; [DPU_3_PIPE] |745| 
        ; BRANCHCC OCCURS {||$C$L2||}    ; [] |745| 
;* --------------------------------------------------------------------------*
        LDR       A2, [V1, #28]         ; [DPU_3_PIPE] |745| 
        ADDS      A1, A1, A2            ; [DPU_3_PIPE] |745| 
        CMP       A1, V5                ; [DPU_3_PIPE] |745| 
        BLS       ||$C$L2||             ; [DPU_3_PIPE] |745| 
        ; BRANCHCC OCCURS {||$C$L2||}    ; [] |745| 
;* --------------------------------------------------------------------------*
	.dwpsn	file "../utils/ff.c",line 746,column 26,is_stmt,isa 1
        LDRB      V4, [V1, #3]          ; [DPU_3_PIPE] |746| 
        CMP       V4, #2                ; [DPU_3_PIPE] |746| 
        BCC       ||$C$L2||             ; [DPU_3_PIPE] |746| 
        ; BRANCHCC OCCURS {||$C$L2||}    ; [] |746| 
;* --------------------------------------------------------------------------*
	.dwpsn	file "../utils/ff.c",line 747,column 5,is_stmt,isa 1
        SUBS      V4, V4, #1            ; [DPU_3_PIPE] |747| 
;* --------------------------------------------------------------------------*
;*   BEGIN LOOP ||$C$L1||
;*
;*   Loop source line                : 746
;*   Loop closing brace source line  : 749
;*   Known Minimum Trip Count        : 1
;*   Known Maximum Trip Count        : 2147483647
;*   Known Max Trip Count Factor     : 1
;* --------------------------------------------------------------------------*
	.align	8
||$C$L1||:    
        LDR       A2, [V1, #28]         ; [DPU_3_PIPE] |747| 
	.dwpsn	file "../utils/ff.c",line 748,column 5,is_stmt,isa 1
        LDRB      A1, [V1, #1]          ; [DPU_3_PIPE] |748| 
	.dwpsn	file "../utils/ff.c",line 747,column 5,is_stmt,isa 1
        ADD       V5, A2, V5            ; [DPU_3_PIPE] |747| 
	.dwpsn	file "../utils/ff.c",line 748,column 5,is_stmt,isa 1
        MOVS      A4, #1                ; [DPU_3_PIPE] |748| 
        MOV       A3, V5                ; [DPU_3_PIPE] |748| 
        MOV       A2, V2                ; [DPU_3_PIPE] |748| 
$C$DW$27	.dwtag  DW_TAG_TI_branch
	.dwattr $C$DW$27, DW_AT_low_pc(0x00)
	.dwattr $C$DW$27, DW_AT_name("disk_write")
	.dwattr $C$DW$27, DW_AT_TI_call
        BL        disk_write            ; [DPU_3_PIPE] |748| 
        ; CALL OCCURS {disk_write }      ; [] |748| 
	.dwpsn	file "../utils/ff.c",line 746,column 26,is_stmt,isa 1
        SUBS      V4, V4, #1            ; [DPU_3_PIPE] |746| 
        BNE       ||$C$L1||             ; [DPU_3_PIPE] |746| 
        ; BRANCHCC OCCURS {||$C$L1||}    ; [] |746| 
;* --------------------------------------------------------------------------*
||$C$L2||:    
	.dwpsn	file "../utils/ff.c",line 752,column 2,is_stmt,isa 1
        MOVS      A1, #0                ; [DPU_3_PIPE] |752| 
;* --------------------------------------------------------------------------*
||$C$L3||:    
$C$DW$28	.dwtag  DW_TAG_TI_branch
	.dwattr $C$DW$28, DW_AT_low_pc(0x00)
	.dwattr $C$DW$28, DW_AT_TI_return
        POP       {A4, V1, V2, V4, V5, PC} ; [DPU_3_PIPE] 
	.dwcfi	cfa_offset, 0
        ; BRANCH OCCURS                  ; [] 
	.dwattr $C$DW$22, DW_AT_TI_end_file("../utils/ff.c")
	.dwattr $C$DW$22, DW_AT_TI_end_line(0x2f1)
	.dwattr $C$DW$22, DW_AT_TI_end_column(0x01)
	.dwendentry
	.dwendtag $C$DW$22

	.sect	".text"
	.align	8
	.clink
	.thumbfunc put_fat
	.thumb
	.global	put_fat

$C$DW$29	.dwtag  DW_TAG_subprogram, DW_AT_name("put_fat")
	.dwattr $C$DW$29, DW_AT_low_pc(put_fat)
	.dwattr $C$DW$29, DW_AT_high_pc(0x00)
	.dwattr $C$DW$29, DW_AT_TI_symbol_name("put_fat")
	.dwattr $C$DW$29, DW_AT_external
	.dwattr $C$DW$29, DW_AT_type(*$C$DW$T$53)
	.dwattr $C$DW$29, DW_AT_TI_begin_file("../utils/ff.c")
	.dwattr $C$DW$29, DW_AT_TI_begin_line(0x375)
	.dwattr $C$DW$29, DW_AT_TI_begin_column(0x09)
	.dwattr $C$DW$29, DW_AT_decl_file("../utils/ff.c")
	.dwattr $C$DW$29, DW_AT_decl_line(0x375)
	.dwattr $C$DW$29, DW_AT_decl_column(0x09)
	.dwattr $C$DW$29, DW_AT_TI_max_frame_size(0x20)
	.dwpsn	file "../utils/ff.c",line 890,column 1,is_stmt,address put_fat,isa 1

	.dwfde $C$DW$CIE, put_fat
$C$DW$30	.dwtag  DW_TAG_formal_parameter, DW_AT_name("fs")
	.dwattr $C$DW$30, DW_AT_TI_symbol_name("fs")
	.dwattr $C$DW$30, DW_AT_type(*$C$DW$T$25)
	.dwattr $C$DW$30, DW_AT_location[DW_OP_reg0]
$C$DW$31	.dwtag  DW_TAG_formal_parameter, DW_AT_name("clst")
	.dwattr $C$DW$31, DW_AT_TI_symbol_name("clst")
	.dwattr $C$DW$31, DW_AT_type(*$C$DW$T$21)
	.dwattr $C$DW$31, DW_AT_location[DW_OP_reg1]
$C$DW$32	.dwtag  DW_TAG_formal_parameter, DW_AT_name("val")
	.dwattr $C$DW$32, DW_AT_TI_symbol_name("val")
	.dwattr $C$DW$32, DW_AT_type(*$C$DW$T$21)
	.dwattr $C$DW$32, DW_AT_location[DW_OP_reg2]

;*****************************************************************************
;* FUNCTION NAME: put_fat                                                    *
;*                                                                           *
;*   Regs Modified     : A1,A2,A3,A4,V1,V2,V3,V4,V5,V6,V9,SP,LR,SR,D0,D0_hi, *
;*                           D1,D1_hi,D2,D2_hi,D3,D3_hi,D4,D4_hi,D5,D5_hi,D6,*
;*                           D6_hi,D7,D7_hi,FPEXC,FPSCR                      *
;*   Regs Used         : A1,A2,A3,A4,V1,V2,V3,V4,V5,V6,V9,SP,LR,SR,D0,D0_hi, *
;*                           D1,D1_hi,D2,D2_hi,D3,D3_hi,D4,D4_hi,D5,D5_hi,D6,*
;*                           D6_hi,D7,D7_hi,FPEXC,FPSCR                      *
;*   Local Frame Size  : 0 Args + 0 Auto + 28 Save = 28 byte                 *
;*****************************************************************************
put_fat:
;* --------------------------------------------------------------------------*
;* A2    assigned to $O$C1
;* A2    assigned to $O$C2
;* V5    assigned to $O$K100
;* V2    assigned to sector
$C$DW$33	.dwtag  DW_TAG_variable, DW_AT_name("sector")
	.dwattr $C$DW$33, DW_AT_TI_symbol_name("sector")
	.dwattr $C$DW$33, DW_AT_type(*$C$DW$T$21)
	.dwattr $C$DW$33, DW_AT_location[DW_OP_reg5]
;* V2    assigned to sector
$C$DW$34	.dwtag  DW_TAG_variable, DW_AT_name("sector")
	.dwattr $C$DW$34, DW_AT_TI_symbol_name("sector")
	.dwattr $C$DW$34, DW_AT_type(*$C$DW$T$21)
	.dwattr $C$DW$34, DW_AT_location[DW_OP_reg5]
;* V2    assigned to sector
$C$DW$35	.dwtag  DW_TAG_variable, DW_AT_name("sector")
	.dwattr $C$DW$35, DW_AT_TI_symbol_name("sector")
	.dwattr $C$DW$35, DW_AT_type(*$C$DW$T$21)
	.dwattr $C$DW$35, DW_AT_location[DW_OP_reg5]
;* V2    assigned to sector
$C$DW$36	.dwtag  DW_TAG_variable, DW_AT_name("sector")
	.dwattr $C$DW$36, DW_AT_TI_symbol_name("sector")
	.dwattr $C$DW$36, DW_AT_type(*$C$DW$T$21)
	.dwattr $C$DW$36, DW_AT_location[DW_OP_reg5]
;* V6    assigned to bc
$C$DW$37	.dwtag  DW_TAG_variable, DW_AT_name("bc")
	.dwattr $C$DW$37, DW_AT_TI_symbol_name("bc")
	.dwattr $C$DW$37, DW_AT_type(*$C$DW$T$61)
	.dwattr $C$DW$37, DW_AT_location[DW_OP_reg9]
;* V1    assigned to val
$C$DW$38	.dwtag  DW_TAG_variable, DW_AT_name("val")
	.dwattr $C$DW$38, DW_AT_TI_symbol_name("val")
	.dwattr $C$DW$38, DW_AT_type(*$C$DW$T$21)
	.dwattr $C$DW$38, DW_AT_location[DW_OP_reg4]
;* V4    assigned to clst
$C$DW$39	.dwtag  DW_TAG_variable, DW_AT_name("clst")
	.dwattr $C$DW$39, DW_AT_TI_symbol_name("clst")
	.dwattr $C$DW$39, DW_AT_type(*$C$DW$T$208)
	.dwattr $C$DW$39, DW_AT_location[DW_OP_reg7]
;* V3    assigned to fs
$C$DW$40	.dwtag  DW_TAG_variable, DW_AT_name("fs")
	.dwattr $C$DW$40, DW_AT_TI_symbol_name("fs")
	.dwattr $C$DW$40, DW_AT_type(*$C$DW$T$131)
	.dwattr $C$DW$40, DW_AT_location[DW_OP_reg6]
;* A1    assigned to res
$C$DW$41	.dwtag  DW_TAG_variable, DW_AT_name("res")
	.dwattr $C$DW$41, DW_AT_TI_symbol_name("res")
	.dwattr $C$DW$41, DW_AT_type(*$C$DW$T$10)
	.dwattr $C$DW$41, DW_AT_location[DW_OP_reg0]
;* A1    assigned to p
$C$DW$42	.dwtag  DW_TAG_variable, DW_AT_name("p")
	.dwattr $C$DW$42, DW_AT_TI_symbol_name("p")
	.dwattr $C$DW$42, DW_AT_type(*$C$DW$T$26)
	.dwattr $C$DW$42, DW_AT_location[DW_OP_reg0]
;* A2    assigned to p
$C$DW$43	.dwtag  DW_TAG_variable, DW_AT_name("p")
	.dwattr $C$DW$43, DW_AT_TI_symbol_name("p")
	.dwattr $C$DW$43, DW_AT_type(*$C$DW$T$26)
	.dwattr $C$DW$43, DW_AT_location[DW_OP_reg1]
	.dwcfi	cfa_offset, 0
        PUSH      {A4, V1, V2, V3, V4, V5, V6, LR} ; [DPU_3_PIPE] 
	.dwcfi	cfa_offset, 32
	.dwcfi	save_reg_to_mem, 14, -4
	.dwcfi	save_reg_to_mem, 9, -8
	.dwcfi	save_reg_to_mem, 8, -12
	.dwcfi	save_reg_to_mem, 7, -16
	.dwcfi	save_reg_to_mem, 6, -20
	.dwcfi	save_reg_to_mem, 5, -24
	.dwcfi	save_reg_to_mem, 4, -28
	.dwcfi	save_reg_to_mem, 3, -32
        MOV       V4, A2                ; [DPU_3_PIPE] |890| 
        MOV       V1, A3                ; [DPU_3_PIPE] |890| 
        MOV       V3, A1                ; [DPU_3_PIPE] |890| 
	.dwpsn	file "../utils/ff.c",line 896,column 2,is_stmt,isa 1
        CMP       V4, #2                ; [DPU_3_PIPE] |896| 
        BCC       ||$C$L4||             ; [DPU_3_PIPE] |896| 
        ; BRANCHCC OCCURS {||$C$L4||}    ; [] |896| 
;* --------------------------------------------------------------------------*
        LDR       A1, [V3, #24]         ; [DPU_3_PIPE] |896| 
        CMP       A1, V4                ; [DPU_3_PIPE] |896| 
        BHI       ||$C$L5||             ; [DPU_3_PIPE] |896| 
        ; BRANCHCC OCCURS {||$C$L5||}    ; [] |896| 
;* --------------------------------------------------------------------------*
||$C$L4||:    
	.dwcfi	remember_state
	.dwpsn	file "../utils/ff.c",line 936,column 2,is_stmt,isa 1
        MOVS      A1, #2                ; [DPU_3_PIPE] |936| 
$C$DW$44	.dwtag  DW_TAG_TI_branch
	.dwattr $C$DW$44, DW_AT_low_pc(0x00)
	.dwattr $C$DW$44, DW_AT_TI_return
        POP       {A4, V1, V2, V3, V4, V5, V6, PC} ; [DPU_3_PIPE] 
	.dwcfi	cfa_offset, 0
        ; BRANCH OCCURS                  ; [] 
	.dwcfi	restore_reg, 9
	.dwcfi	restore_reg, 8
	.dwcfi	restore_reg, 7
	.dwcfi	restore_reg, 6
	.dwcfi	restore_reg, 5
	.dwcfi	restore_reg, 4
	.dwcfi	restore_reg, 3
	.dwcfi	restore_state
;* --------------------------------------------------------------------------*
	.align	8
||$C$L5||:    
	.dwpsn	file "../utils/ff.c",line 900,column 3,is_stmt,isa 1
        LDRB      A1, [V3, #0]          ; [DPU_3_PIPE] |900| 
        SUBS      A1, A1, #1            ; [DPU_3_PIPE] |900| 
        BEQ       ||$C$L9||             ; [DPU_3_PIPE] |900| 
        ; BRANCHCC OCCURS {||$C$L9||}    ; [] |900| 
;* --------------------------------------------------------------------------*
        SUBS      A1, A1, #1            ; [DPU_3_PIPE] |900| 
        BEQ       ||$C$L7||             ; [DPU_3_PIPE] |900| 
        ; BRANCHCC OCCURS {||$C$L7||}    ; [] |900| 
;* --------------------------------------------------------------------------*
        SUBS      A1, A1, #1            ; [DPU_3_PIPE] |900| 
        BNE       ||$C$L16||            ; [DPU_3_PIPE] |900| 
        ; BRANCHCC OCCURS {||$C$L16||}   ; [] |900| 
;* --------------------------------------------------------------------------*
	.dwpsn	file "../utils/ff.c",line 923,column 4,is_stmt,isa 1
        LDR       V2, [V3, #36]         ; [DPU_3_PIPE] |923| 
	.dwpsn	file "../utils/ff.c",line 763,column 2,is_stmt,isa 1
        LDR       A1, [V3, #48]         ; [DPU_3_PIPE] |763| 
	.dwpsn	file "../utils/ff.c",line 923,column 4,is_stmt,isa 1
        ADD       V2, V2, V4, LSR #7    ; [DPU_3_PIPE] |923| 
	.dwpsn	file "../utils/ff.c",line 763,column 2,is_stmt,isa 1
        CMP       A1, V2                ; [DPU_3_PIPE] |763| 
        BEQ       ||$C$L6||             ; [DPU_3_PIPE] |763| 
        ; BRANCHCC OCCURS {||$C$L6||}    ; [] |763| 
;* --------------------------------------------------------------------------*
	.dwpsn	file "../utils/ff.c",line 765,column 3,is_stmt,isa 1
        MOV       A1, V3                ; [DPU_3_PIPE] |765| 
$C$DW$45	.dwtag  DW_TAG_TI_branch
	.dwattr $C$DW$45, DW_AT_low_pc(0x00)
	.dwattr $C$DW$45, DW_AT_name("sync_window")
	.dwattr $C$DW$45, DW_AT_TI_call
        BL        sync_window           ; [DPU_3_PIPE] |765| 
        ; CALL OCCURS {sync_window }     ; [] |765| 
        CMP       A1, #0                ; [DPU_3_PIPE] |765| 
        BNE       ||$C$L15||            ; [DPU_3_PIPE] |765| 
        ; BRANCHCC OCCURS {||$C$L15||}   ; [] |765| 
;* --------------------------------------------------------------------------*
	.dwpsn	file "../utils/ff.c",line 768,column 3,is_stmt,isa 1
        LDRB      A1, [V3, #1]          ; [DPU_3_PIPE] |768| 
        ADD       A2, V3, #52           ; [DPU_3_PIPE] |768| 
        MOV       A3, V2                ; [DPU_3_PIPE] |768| 
        MOVS      A4, #1                ; [DPU_3_PIPE] |768| 
$C$DW$46	.dwtag  DW_TAG_TI_branch
	.dwattr $C$DW$46, DW_AT_low_pc(0x00)
	.dwattr $C$DW$46, DW_AT_name("disk_read")
	.dwattr $C$DW$46, DW_AT_TI_call
        BL        disk_read             ; [DPU_3_PIPE] |768| 
        ; CALL OCCURS {disk_read }       ; [] |768| 
        CMP       A1, #0                ; [DPU_3_PIPE] |768| 
        BNE       ||$C$L15||            ; [DPU_3_PIPE] |768| 
        ; BRANCHCC OCCURS {||$C$L15||}   ; [] |768| 
;* --------------------------------------------------------------------------*
	.dwpsn	file "../utils/ff.c",line 770,column 3,is_stmt,isa 1
        STR       V2, [V3, #48]         ; [DPU_3_PIPE] |770| 
;* --------------------------------------------------------------------------*
||$C$L6||:    
	.dwpsn	file "../utils/ff.c",line 926,column 4,is_stmt,isa 1
        LSLS      A1, V4, #2            ; [DPU_3_PIPE] |926| 
        AND       A1, A1, #508          ; [DPU_3_PIPE] |926| 
        ADDS      A2, V3, A1            ; [DPU_3_PIPE] |926| 
        LDRB      A1, [A2, #55]         ; [DPU_3_PIPE] |926| 
        MOV       V5, #1                ; [DPU_3_PIPE] 
        AND       A1, A1, #240          ; [DPU_3_PIPE] |926| 
        ORR       V1, V1, A1, LSL #24   ; [DPU_3_PIPE] |926| 
	.dwpsn	file "../utils/ff.c",line 927,column 4,is_stmt,isa 1
        STRB      V1, [A2, #52]         ; [DPU_3_PIPE] |927| 
        LSRS      A4, V1, #8            ; [DPU_3_PIPE] |927| 
        STRB      A4, [A2, #53]         ; [DPU_3_PIPE] |927| 
        LSRS      A1, V1, #16           ; [DPU_3_PIPE] |927| 
        STRB      A1, [A2, #54]         ; [DPU_3_PIPE] |927| 
        LSRS      A3, V1, #24           ; [DPU_3_PIPE] |927| 
        STRB      A3, [A2, #55]         ; [DPU_3_PIPE] |927| 
	.dwpsn	file "../utils/ff.c",line 773,column 2,is_stmt,isa 1
        MOVS      A1, #0                ; [DPU_3_PIPE] |773| 
	.dwpsn	file "../utils/ff.c",line 928,column 4,is_stmt,isa 1
        B         ||$C$L17||            ; [DPU_3_PIPE] |928| 
        ; BRANCH OCCURS {||$C$L17||}     ; [] |928| 
;* --------------------------------------------------------------------------*
	.align	8
||$C$L7||:    
	.dwpsn	file "../utils/ff.c",line 916,column 4,is_stmt,isa 1
        LDR       V2, [V3, #36]         ; [DPU_3_PIPE] |916| 
	.dwpsn	file "../utils/ff.c",line 763,column 2,is_stmt,isa 1
        LDR       A1, [V3, #48]         ; [DPU_3_PIPE] |763| 
	.dwpsn	file "../utils/ff.c",line 916,column 4,is_stmt,isa 1
        ADD       V2, V2, V4, LSR #8    ; [DPU_3_PIPE] |916| 
	.dwpsn	file "../utils/ff.c",line 763,column 2,is_stmt,isa 1
        CMP       A1, V2                ; [DPU_3_PIPE] |763| 
        BEQ       ||$C$L8||             ; [DPU_3_PIPE] |763| 
        ; BRANCHCC OCCURS {||$C$L8||}    ; [] |763| 
;* --------------------------------------------------------------------------*
	.dwpsn	file "../utils/ff.c",line 765,column 3,is_stmt,isa 1
        MOV       A1, V3                ; [DPU_3_PIPE] |765| 
$C$DW$47	.dwtag  DW_TAG_TI_branch
	.dwattr $C$DW$47, DW_AT_low_pc(0x00)
	.dwattr $C$DW$47, DW_AT_name("sync_window")
	.dwattr $C$DW$47, DW_AT_TI_call
        BL        sync_window           ; [DPU_3_PIPE] |765| 
        ; CALL OCCURS {sync_window }     ; [] |765| 
        CMP       A1, #0                ; [DPU_3_PIPE] |765| 
        BNE       ||$C$L15||            ; [DPU_3_PIPE] |765| 
        ; BRANCHCC OCCURS {||$C$L15||}   ; [] |765| 
;* --------------------------------------------------------------------------*
	.dwpsn	file "../utils/ff.c",line 768,column 3,is_stmt,isa 1
        LDRB      A1, [V3, #1]          ; [DPU_3_PIPE] |768| 
        ADD       A2, V3, #52           ; [DPU_3_PIPE] |768| 
        MOV       A3, V2                ; [DPU_3_PIPE] |768| 
        MOVS      A4, #1                ; [DPU_3_PIPE] |768| 
$C$DW$48	.dwtag  DW_TAG_TI_branch
	.dwattr $C$DW$48, DW_AT_low_pc(0x00)
	.dwattr $C$DW$48, DW_AT_name("disk_read")
	.dwattr $C$DW$48, DW_AT_TI_call
        BL        disk_read             ; [DPU_3_PIPE] |768| 
        ; CALL OCCURS {disk_read }       ; [] |768| 
        CMP       A1, #0                ; [DPU_3_PIPE] |768| 
        BNE       ||$C$L15||            ; [DPU_3_PIPE] |768| 
        ; BRANCHCC OCCURS {||$C$L15||}   ; [] |768| 
;* --------------------------------------------------------------------------*
	.dwpsn	file "../utils/ff.c",line 770,column 3,is_stmt,isa 1
        STR       V2, [V3, #48]         ; [DPU_3_PIPE] |770| 
;* --------------------------------------------------------------------------*
||$C$L8||:    
	.dwpsn	file "../utils/ff.c",line 919,column 4,is_stmt,isa 1
        LSLS      A1, V4, #1            ; [DPU_3_PIPE] |919| 
        LSRS      A3, V1, #8            ; [DPU_3_PIPE] |919| 
        AND       A1, A1, #510          ; [DPU_3_PIPE] |919| 
        MOV       V5, #1                ; [DPU_3_PIPE] 
        ADDS      A2, V3, A1            ; [DPU_3_PIPE] |919| 
        STRB      V1, [A2, #52]         ; [DPU_3_PIPE] |919| 
	.dwpsn	file "../utils/ff.c",line 773,column 2,is_stmt,isa 1
        MOVS      A1, #0                ; [DPU_3_PIPE] |773| 
	.dwpsn	file "../utils/ff.c",line 919,column 4,is_stmt,isa 1
        STRB      A3, [A2, #53]         ; [DPU_3_PIPE] |919| 
	.dwpsn	file "../utils/ff.c",line 920,column 4,is_stmt,isa 1
        B         ||$C$L17||            ; [DPU_3_PIPE] |920| 
        ; BRANCH OCCURS {||$C$L17||}     ; [] |920| 
;* --------------------------------------------------------------------------*
	.align	8
||$C$L9||:    
	.dwpsn	file "../utils/ff.c",line 903,column 4,is_stmt,isa 1
        LDR       V2, [V3, #36]         ; [DPU_3_PIPE] |903| 
	.dwpsn	file "../utils/ff.c",line 763,column 2,is_stmt,isa 1
        LDR       A1, [V3, #48]         ; [DPU_3_PIPE] |763| 
	.dwpsn	file "../utils/ff.c",line 902,column 21,is_stmt,isa 1
        ADD       V6, V4, V4, LSR #1    ; [DPU_3_PIPE] |902| 
	.dwpsn	file "../utils/ff.c",line 903,column 4,is_stmt,isa 1
        ADD       V2, V2, V6, LSR #9    ; [DPU_3_PIPE] |903| 
	.dwpsn	file "../utils/ff.c",line 763,column 2,is_stmt,isa 1
        CMP       A1, V2                ; [DPU_3_PIPE] |763| 
        BEQ       ||$C$L10||            ; [DPU_3_PIPE] |763| 
        ; BRANCHCC OCCURS {||$C$L10||}   ; [] |763| 
;* --------------------------------------------------------------------------*
	.dwpsn	file "../utils/ff.c",line 765,column 3,is_stmt,isa 1
        MOV       A1, V3                ; [DPU_3_PIPE] |765| 
$C$DW$49	.dwtag  DW_TAG_TI_branch
	.dwattr $C$DW$49, DW_AT_low_pc(0x00)
	.dwattr $C$DW$49, DW_AT_name("sync_window")
	.dwattr $C$DW$49, DW_AT_TI_call
        BL        sync_window           ; [DPU_3_PIPE] |765| 
        ; CALL OCCURS {sync_window }     ; [] |765| 
        CMP       A1, #0                ; [DPU_3_PIPE] |765| 
        BNE       ||$C$L15||            ; [DPU_3_PIPE] |765| 
        ; BRANCHCC OCCURS {||$C$L15||}   ; [] |765| 
;* --------------------------------------------------------------------------*
	.dwpsn	file "../utils/ff.c",line 768,column 3,is_stmt,isa 1
        LDRB      A1, [V3, #1]          ; [DPU_3_PIPE] |768| 
        ADD       A2, V3, #52           ; [DPU_3_PIPE] |768| 
        MOV       A3, V2                ; [DPU_3_PIPE] |768| 
        MOVS      A4, #1                ; [DPU_3_PIPE] |768| 
$C$DW$50	.dwtag  DW_TAG_TI_branch
	.dwattr $C$DW$50, DW_AT_low_pc(0x00)
	.dwattr $C$DW$50, DW_AT_name("disk_read")
	.dwattr $C$DW$50, DW_AT_TI_call
        BL        disk_read             ; [DPU_3_PIPE] |768| 
        ; CALL OCCURS {disk_read }       ; [] |768| 
        CMP       A1, #0                ; [DPU_3_PIPE] |768| 
        BNE       ||$C$L15||            ; [DPU_3_PIPE] |768| 
        ; BRANCHCC OCCURS {||$C$L15||}   ; [] |768| 
;* --------------------------------------------------------------------------*
	.dwpsn	file "../utils/ff.c",line 770,column 3,is_stmt,isa 1
        STR       V2, [V3, #48]         ; [DPU_3_PIPE] |770| 
;* --------------------------------------------------------------------------*
||$C$L10||:    
	.dwpsn	file "../utils/ff.c",line 905,column 4,is_stmt,isa 1
        UBFX      A1, V6, #0, #9        ; [DPU_3_PIPE] |905| 
	.dwpsn	file "../utils/ff.c",line 906,column 4,is_stmt,isa 1
        LSRS      A2, V4, #1            ; [DPU_3_PIPE] |906| 
	.dwpsn	file "../utils/ff.c",line 905,column 4,is_stmt,isa 1
        ADD       A1, V3, A1            ; [DPU_3_PIPE] |905| 
        ADD       A1, A1, #52           ; [DPU_3_PIPE] |905| 
        IT        CC                    ; [DPU_3_PIPE] 
	.dwpsn	file "../utils/ff.c",line 906,column 4,is_stmt,isa 1
        STRBCC    V1, [A1, #0]          ; [DPU_3_PIPE] |906| 
        BCC       ||$C$L11||            ; [DPU_3_PIPE] |906| 
        ; BRANCHCC OCCURS {||$C$L11||}   ; [] |906| 
;* --------------------------------------------------------------------------*
        LDRB      A2, [A1, #0]          ; [DPU_3_PIPE] |906| 
        BFI       A2, V1, #4, #28       ; [DPU_3_PIPE] |906| 
        STRB      A2, [A1, #0]          ; [DPU_3_PIPE] |906| 
;* --------------------------------------------------------------------------*
||$C$L11||:    
	.dwpsn	file "../utils/ff.c",line 909,column 4,is_stmt,isa 1
        LDR       V2, [V3, #36]         ; [DPU_3_PIPE] |909| 
	.dwpsn	file "../utils/ff.c",line 908,column 4,is_stmt,isa 1
        MOV       V5, #1                ; [DPU_3_PIPE] |908| 
	.dwpsn	file "../utils/ff.c",line 909,column 4,is_stmt,isa 1
        ADD       V6, V6, #1            ; [DPU_3_PIPE] |909| 
	.dwpsn	file "../utils/ff.c",line 763,column 2,is_stmt,isa 1
        LDR       A1, [V3, #48]         ; [DPU_3_PIPE] |763| 
	.dwpsn	file "../utils/ff.c",line 908,column 4,is_stmt,isa 1
        STRB      V5, [V3, #4]          ; [DPU_3_PIPE] |908| 
	.dwpsn	file "../utils/ff.c",line 909,column 4,is_stmt,isa 1
        ADD       V2, V2, V6, LSR #9    ; [DPU_3_PIPE] |909| 
	.dwpsn	file "../utils/ff.c",line 763,column 2,is_stmt,isa 1
        CMP       A1, V2                ; [DPU_3_PIPE] |763| 
        BEQ       ||$C$L12||            ; [DPU_3_PIPE] |763| 
        ; BRANCHCC OCCURS {||$C$L12||}   ; [] |763| 
;* --------------------------------------------------------------------------*
	.dwpsn	file "../utils/ff.c",line 765,column 3,is_stmt,isa 1
        MOV       A1, V3                ; [DPU_3_PIPE] |765| 
$C$DW$51	.dwtag  DW_TAG_TI_branch
	.dwattr $C$DW$51, DW_AT_low_pc(0x00)
	.dwattr $C$DW$51, DW_AT_name("sync_window")
	.dwattr $C$DW$51, DW_AT_TI_call
        BL        sync_window           ; [DPU_3_PIPE] |765| 
        ; CALL OCCURS {sync_window }     ; [] |765| 
        CBNZ      A1, ||$C$L14||        ; [] 
        ; BRANCHCC OCCURS {||$C$L14||}   ; [] |765| 
;* --------------------------------------------------------------------------*
	.dwpsn	file "../utils/ff.c",line 768,column 3,is_stmt,isa 1
        LDRB      A1, [V3, #1]          ; [DPU_3_PIPE] |768| 
        ADD       A2, V3, #52           ; [DPU_3_PIPE] |768| 
        MOV       A3, V2                ; [DPU_3_PIPE] |768| 
        MOV       A4, V5                ; [DPU_3_PIPE] |768| 
$C$DW$52	.dwtag  DW_TAG_TI_branch
	.dwattr $C$DW$52, DW_AT_low_pc(0x00)
	.dwattr $C$DW$52, DW_AT_name("disk_read")
	.dwattr $C$DW$52, DW_AT_TI_call
        BL        disk_read             ; [DPU_3_PIPE] |768| 
        ; CALL OCCURS {disk_read }       ; [] |768| 
        CBNZ      A1, ||$C$L14||        ; [] 
        ; BRANCHCC OCCURS {||$C$L14||}   ; [] |768| 
;* --------------------------------------------------------------------------*
	.dwpsn	file "../utils/ff.c",line 770,column 3,is_stmt,isa 1
        STR       V2, [V3, #48]         ; [DPU_3_PIPE] |770| 
;* --------------------------------------------------------------------------*
||$C$L12||:    
	.dwpsn	file "../utils/ff.c",line 911,column 4,is_stmt,isa 1
        UBFX      A1, V6, #0, #9        ; [DPU_3_PIPE] |911| 
        ADDS      A2, V3, A1            ; [DPU_3_PIPE] |911| 
	.dwpsn	file "../utils/ff.c",line 912,column 4,is_stmt,isa 1
        LSRS      A3, V4, #1            ; [DPU_3_PIPE] |912| 
	.dwpsn	file "../utils/ff.c",line 773,column 2,is_stmt,isa 1
        MOV       A1, #0                ; [DPU_3_PIPE] |773| 
	.dwpsn	file "../utils/ff.c",line 911,column 4,is_stmt,isa 1
        ADD       A2, A2, #52           ; [DPU_3_PIPE] |911| 
	.dwpsn	file "../utils/ff.c",line 912,column 4,is_stmt,isa 1
        BCS       ||$C$L13||            ; [DPU_3_PIPE] |912| 
        ; BRANCHCC OCCURS {||$C$L13||}   ; [] |912| 
;* --------------------------------------------------------------------------*
        LDRB      A3, [A2, #0]          ; [DPU_3_PIPE] |912| 
        UBFX      A4, V1, #8, #4        ; [DPU_3_PIPE] |912| 
        AND       A3, A3, #240          ; [DPU_3_PIPE] |912| 
        ORRS      A4, A4, A3            ; [DPU_3_PIPE] |912| 
        STRB      A4, [A2, #0]          ; [DPU_3_PIPE] |912| 
        B         ||$C$L17||            ; [DPU_3_PIPE] |912| 
        ; BRANCH OCCURS {||$C$L17||}     ; [] |912| 
;* --------------------------------------------------------------------------*
	.align	8
||$C$L13||:    
        LSRS      A3, V1, #4            ; [DPU_3_PIPE] |912| 
        STRB      A3, [A2, #0]          ; [DPU_3_PIPE] |912| 
        B         ||$C$L17||            ; [DPU_3_PIPE] |912| 
        ; BRANCH OCCURS {||$C$L17||}     ; [] |912| 
;* --------------------------------------------------------------------------*
||$C$L14||:    
        MOV       A1, V5                ; [DPU_3_PIPE] 
	.dwpsn	file "../utils/ff.c",line 910,column 22,is_stmt,isa 1
        B         ||$C$L17||            ; [DPU_3_PIPE] |910| 
        ; BRANCH OCCURS {||$C$L17||}     ; [] |910| 
;* --------------------------------------------------------------------------*
	.align	8
||$C$L15||:    
        MOV       V5, #1                ; [DPU_3_PIPE] 
        MOV       A1, V5                ; [DPU_3_PIPE] 
	.dwpsn	file "../utils/ff.c",line 904,column 22,is_stmt,isa 1
        B         ||$C$L17||            ; [DPU_3_PIPE] |904| 
        ; BRANCH OCCURS {||$C$L17||}     ; [] |904| 
;* --------------------------------------------------------------------------*
||$C$L16||:    
        MOV       V5, #1                ; [DPU_3_PIPE] 
	.dwpsn	file "../utils/ff.c",line 931,column 4,is_stmt,isa 1
        MOVS      A1, #2                ; [DPU_3_PIPE] |931| 
;* --------------------------------------------------------------------------*
||$C$L17||:    
	.dwpsn	file "../utils/ff.c",line 933,column 3,is_stmt,isa 1
        STRB      V5, [V3, #4]          ; [DPU_3_PIPE] |933| 
;* --------------------------------------------------------------------------*
$C$DW$53	.dwtag  DW_TAG_TI_branch
	.dwattr $C$DW$53, DW_AT_low_pc(0x00)
	.dwattr $C$DW$53, DW_AT_TI_return
        POP       {A4, V1, V2, V3, V4, V5, V6, PC} ; [DPU_3_PIPE] 
	.dwcfi	cfa_offset, 0
        ; BRANCH OCCURS                  ; [] 
	.dwattr $C$DW$29, DW_AT_TI_end_file("../utils/ff.c")
	.dwattr $C$DW$29, DW_AT_TI_end_line(0x3a9)
	.dwattr $C$DW$29, DW_AT_TI_end_column(0x01)
	.dwendentry
	.dwendtag $C$DW$29

	.sect	".text"
	.align	8
	.clink
	.thumbfunc get_fat
	.thumb
	.global	get_fat

$C$DW$54	.dwtag  DW_TAG_subprogram, DW_AT_name("get_fat")
	.dwattr $C$DW$54, DW_AT_low_pc(get_fat)
	.dwattr $C$DW$54, DW_AT_high_pc(0x00)
	.dwattr $C$DW$54, DW_AT_TI_symbol_name("get_fat")
	.dwattr $C$DW$54, DW_AT_external
	.dwattr $C$DW$54, DW_AT_type(*$C$DW$T$21)
	.dwattr $C$DW$54, DW_AT_TI_begin_file("../utils/ff.c")
	.dwattr $C$DW$54, DW_AT_TI_begin_line(0x34a)
	.dwattr $C$DW$54, DW_AT_TI_begin_column(0x07)
	.dwattr $C$DW$54, DW_AT_decl_file("../utils/ff.c")
	.dwattr $C$DW$54, DW_AT_decl_line(0x34a)
	.dwattr $C$DW$54, DW_AT_decl_column(0x07)
	.dwattr $C$DW$54, DW_AT_TI_max_frame_size(0x18)
	.dwpsn	file "../utils/ff.c",line 846,column 1,is_stmt,address get_fat,isa 1

	.dwfde $C$DW$CIE, get_fat
$C$DW$55	.dwtag  DW_TAG_formal_parameter, DW_AT_name("fs")
	.dwattr $C$DW$55, DW_AT_TI_symbol_name("fs")
	.dwattr $C$DW$55, DW_AT_type(*$C$DW$T$25)
	.dwattr $C$DW$55, DW_AT_location[DW_OP_reg0]
$C$DW$56	.dwtag  DW_TAG_formal_parameter, DW_AT_name("clst")
	.dwattr $C$DW$56, DW_AT_TI_symbol_name("clst")
	.dwattr $C$DW$56, DW_AT_type(*$C$DW$T$21)
	.dwattr $C$DW$56, DW_AT_location[DW_OP_reg1]

;*****************************************************************************
;* FUNCTION NAME: get_fat                                                    *
;*                                                                           *
;*   Regs Modified     : A1,A2,A3,A4,V1,V2,V3,V4,V5,V9,SP,LR,SR,D0,D0_hi,D1, *
;*                           D1_hi,D2,D2_hi,D3,D3_hi,D4,D4_hi,D5,D5_hi,D6,   *
;*                           D6_hi,D7,D7_hi,FPEXC,FPSCR                      *
;*   Regs Used         : A1,A2,A3,A4,V1,V2,V3,V4,V5,V9,SP,LR,SR,D0,D0_hi,D1, *
;*                           D1_hi,D2,D2_hi,D3,D3_hi,D4,D4_hi,D5,D5_hi,D6,   *
;*                           D6_hi,D7,D7_hi,FPEXC,FPSCR                      *
;*   Local Frame Size  : 0 Args + 0 Auto + 24 Save = 24 byte                 *
;*****************************************************************************
get_fat:
;* --------------------------------------------------------------------------*
;* V2    assigned to $O$C1
;* A1    assigned to $O$C2
;* V3    assigned to $O$C3
;* V2    assigned to $O$C4
;* V1    assigned to $O$C5
;* V1    assigned to $O$C6
;* V1    assigned to fs
$C$DW$57	.dwtag  DW_TAG_variable, DW_AT_name("fs")
	.dwattr $C$DW$57, DW_AT_TI_symbol_name("fs")
	.dwattr $C$DW$57, DW_AT_type(*$C$DW$T$131)
	.dwattr $C$DW$57, DW_AT_location[DW_OP_reg4]
;* V4    assigned to clst
$C$DW$58	.dwtag  DW_TAG_variable, DW_AT_name("clst")
	.dwattr $C$DW$58, DW_AT_TI_symbol_name("clst")
	.dwattr $C$DW$58, DW_AT_type(*$C$DW$T$208)
	.dwattr $C$DW$58, DW_AT_location[DW_OP_reg7]
;* V3    assigned to wc
$C$DW$59	.dwtag  DW_TAG_variable, DW_AT_name("wc")
	.dwattr $C$DW$59, DW_AT_TI_symbol_name("wc")
	.dwattr $C$DW$59, DW_AT_type(*$C$DW$T$61)
	.dwattr $C$DW$59, DW_AT_location[DW_OP_reg6]
;* V5    assigned to bc
$C$DW$60	.dwtag  DW_TAG_variable, DW_AT_name("bc")
	.dwattr $C$DW$60, DW_AT_TI_symbol_name("bc")
	.dwattr $C$DW$60, DW_AT_type(*$C$DW$T$61)
	.dwattr $C$DW$60, DW_AT_location[DW_OP_reg8]
;* V2    assigned to sector
$C$DW$61	.dwtag  DW_TAG_variable, DW_AT_name("sector")
	.dwattr $C$DW$61, DW_AT_TI_symbol_name("sector")
	.dwattr $C$DW$61, DW_AT_type(*$C$DW$T$21)
	.dwattr $C$DW$61, DW_AT_location[DW_OP_reg5]
;* V2    assigned to sector
$C$DW$62	.dwtag  DW_TAG_variable, DW_AT_name("sector")
	.dwattr $C$DW$62, DW_AT_TI_symbol_name("sector")
	.dwattr $C$DW$62, DW_AT_type(*$C$DW$T$21)
	.dwattr $C$DW$62, DW_AT_location[DW_OP_reg5]
;* V3    assigned to sector
$C$DW$63	.dwtag  DW_TAG_variable, DW_AT_name("sector")
	.dwattr $C$DW$63, DW_AT_TI_symbol_name("sector")
	.dwattr $C$DW$63, DW_AT_type(*$C$DW$T$21)
	.dwattr $C$DW$63, DW_AT_location[DW_OP_reg6]
;* A1    assigned to $O$U20
;* V2    assigned to $O$U14
	.dwcfi	cfa_offset, 0
        PUSH      {V1, V2, V3, V4, V5, LR} ; [DPU_3_PIPE] 
	.dwcfi	cfa_offset, 24
	.dwcfi	save_reg_to_mem, 14, -4
	.dwcfi	save_reg_to_mem, 8, -8
	.dwcfi	save_reg_to_mem, 7, -12
	.dwcfi	save_reg_to_mem, 6, -16
	.dwcfi	save_reg_to_mem, 5, -20
	.dwcfi	save_reg_to_mem, 4, -24
        MOV       V4, A2                ; [DPU_3_PIPE] |846| 
        MOV       V1, A1                ; [DPU_3_PIPE] |846| 
	.dwpsn	file "../utils/ff.c",line 851,column 2,is_stmt,isa 1
        CMP       V4, #2                ; [DPU_3_PIPE] |851| 
        BCC       ||$C$L18||            ; [DPU_3_PIPE] |851| 
        ; BRANCHCC OCCURS {||$C$L18||}   ; [] |851| 
;* --------------------------------------------------------------------------*
        LDR       A1, [V1, #24]         ; [DPU_3_PIPE] |851| 
        CMP       A1, V4                ; [DPU_3_PIPE] |851| 
        BHI       ||$C$L19||            ; [DPU_3_PIPE] |851| 
        ; BRANCHCC OCCURS {||$C$L19||}   ; [] |851| 
;* --------------------------------------------------------------------------*
||$C$L18||:    
	.dwcfi	remember_state
	.dwpsn	file "../utils/ff.c",line 852,column 3,is_stmt,isa 1
        MOVS      A1, #1                ; [DPU_3_PIPE] |852| 
$C$DW$64	.dwtag  DW_TAG_TI_branch
	.dwattr $C$DW$64, DW_AT_low_pc(0x00)
	.dwattr $C$DW$64, DW_AT_TI_return
        POP       {V1, V2, V3, V4, V5, PC} ; [DPU_3_PIPE] 
	.dwcfi	cfa_offset, 0
        ; BRANCH OCCURS                  ; [] 
	.dwcfi	restore_reg, 8
	.dwcfi	restore_reg, 7
	.dwcfi	restore_reg, 6
	.dwcfi	restore_reg, 5
	.dwcfi	restore_reg, 4
	.dwcfi	restore_state
;* --------------------------------------------------------------------------*
	.align	8
||$C$L19||:    
	.dwpsn	file "../utils/ff.c",line 854,column 2,is_stmt,isa 1
        LDRB      A1, [V1, #0]          ; [DPU_3_PIPE] |854| 
        SUBS      A1, A1, #1            ; [DPU_3_PIPE] |854| 
        BEQ       ||$C$L23||            ; [DPU_3_PIPE] |854| 
        ; BRANCHCC OCCURS {||$C$L23||}   ; [] |854| 
;* --------------------------------------------------------------------------*
        SUBS      A1, A1, #1            ; [DPU_3_PIPE] |854| 
        BEQ       ||$C$L21||            ; [DPU_3_PIPE] |854| 
        ; BRANCHCC OCCURS {||$C$L21||}   ; [] |854| 
;* --------------------------------------------------------------------------*
        SUBS      A1, A1, #1            ; [DPU_3_PIPE] |854| 
        BNE       ||$C$L25||            ; [DPU_3_PIPE] |854| 
        ; BRANCHCC OCCURS {||$C$L25||}   ; [] |854| 
;* --------------------------------------------------------------------------*
	.dwpsn	file "../utils/ff.c",line 869,column 61,is_stmt,isa 1
        LDR       V2, [V1, #36]         ; [DPU_3_PIPE] |869| 
	.dwpsn	file "../utils/ff.c",line 763,column 2,is_stmt,isa 1
        LDR       A1, [V1, #48]         ; [DPU_3_PIPE] |763| 
	.dwpsn	file "../utils/ff.c",line 869,column 61,is_stmt,isa 1
        ADD       V2, V2, V4, LSR #7    ; [DPU_3_PIPE] |869| 
	.dwpsn	file "../utils/ff.c",line 763,column 2,is_stmt,isa 1
        CMP       A1, V2                ; [DPU_3_PIPE] |763| 
        BEQ       ||$C$L20||            ; [DPU_3_PIPE] |763| 
        ; BRANCHCC OCCURS {||$C$L20||}   ; [] |763| 
;* --------------------------------------------------------------------------*
	.dwpsn	file "../utils/ff.c",line 765,column 3,is_stmt,isa 1
        MOV       A1, V1                ; [DPU_3_PIPE] |765| 
$C$DW$65	.dwtag  DW_TAG_TI_branch
	.dwattr $C$DW$65, DW_AT_low_pc(0x00)
	.dwattr $C$DW$65, DW_AT_name("sync_window")
	.dwattr $C$DW$65, DW_AT_TI_call
        BL        sync_window           ; [DPU_3_PIPE] |765| 
        ; CALL OCCURS {sync_window }     ; [] |765| 
        CMP       A1, #0                ; [DPU_3_PIPE] |765| 
        BNE       ||$C$L25||            ; [DPU_3_PIPE] |765| 
        ; BRANCHCC OCCURS {||$C$L25||}   ; [] |765| 
;* --------------------------------------------------------------------------*
	.dwpsn	file "../utils/ff.c",line 768,column 3,is_stmt,isa 1
        LDRB      A1, [V1, #1]          ; [DPU_3_PIPE] |768| 
        ADD       A2, V1, #52           ; [DPU_3_PIPE] |768| 
        MOV       A3, V2                ; [DPU_3_PIPE] |768| 
        MOVS      A4, #1                ; [DPU_3_PIPE] |768| 
$C$DW$66	.dwtag  DW_TAG_TI_branch
	.dwattr $C$DW$66, DW_AT_low_pc(0x00)
	.dwattr $C$DW$66, DW_AT_name("disk_read")
	.dwattr $C$DW$66, DW_AT_TI_call
        BL        disk_read             ; [DPU_3_PIPE] |768| 
        ; CALL OCCURS {disk_read }       ; [] |768| 
        CMP       A1, #0                ; [DPU_3_PIPE] |768| 
        BNE       ||$C$L25||            ; [DPU_3_PIPE] |768| 
        ; BRANCHCC OCCURS {||$C$L25||}   ; [] |768| 
;* --------------------------------------------------------------------------*
	.dwcfi	remember_state
	.dwpsn	file "../utils/ff.c",line 770,column 3,is_stmt,isa 1
        STR       V2, [V1, #48]         ; [DPU_3_PIPE] |770| 
;* --------------------------------------------------------------------------*
||$C$L20||:    
	.dwpsn	file "../utils/ff.c",line 871,column 3,is_stmt,isa 1
        LSLS      A1, V4, #2            ; [DPU_3_PIPE] |871| 
        AND       A1, A1, #508          ; [DPU_3_PIPE] |871| 
        ADDS      V1, V1, A1            ; [DPU_3_PIPE] |871| 
        LDRB      A4, [V1, #55]         ; [DPU_3_PIPE] |871| 
        LDRB      A2, [V1, #54]         ; [DPU_3_PIPE] |871| 
        LDRB      A3, [V1, #53]         ; [DPU_3_PIPE] |871| 
        LDRB      A1, [V1, #52]         ; [DPU_3_PIPE] |871| 
        ORR       A2, A2, A4, LSL #8    ; [DPU_3_PIPE] |871| 
        LSLS      A2, A2, #16           ; [DPU_3_PIPE] |871| 
        ORR       A2, A2, A3, LSL #8    ; [DPU_3_PIPE] |871| 
        ORRS      A1, A1, A2            ; [DPU_3_PIPE] |871| 
        BIC       A1, A1, #-268435456   ; [DPU_3_PIPE] |871| 
$C$DW$67	.dwtag  DW_TAG_TI_branch
	.dwattr $C$DW$67, DW_AT_low_pc(0x00)
	.dwattr $C$DW$67, DW_AT_TI_return
        POP       {V1, V2, V3, V4, V5, PC} ; [DPU_3_PIPE] 
	.dwcfi	cfa_offset, 0
        ; BRANCH OCCURS                  ; [] 
	.dwcfi	restore_reg, 8
	.dwcfi	restore_reg, 7
	.dwcfi	restore_reg, 6
	.dwcfi	restore_reg, 5
	.dwcfi	restore_reg, 4
	.dwcfi	restore_state
;* --------------------------------------------------------------------------*
	.align	8
||$C$L21||:    
	.dwpsn	file "../utils/ff.c",line 864,column 61,is_stmt,isa 1
        LDR       V2, [V1, #36]         ; [DPU_3_PIPE] |864| 
	.dwpsn	file "../utils/ff.c",line 763,column 2,is_stmt,isa 1
        LDR       A1, [V1, #48]         ; [DPU_3_PIPE] |763| 
	.dwpsn	file "../utils/ff.c",line 864,column 61,is_stmt,isa 1
        ADD       V2, V2, V4, LSR #8    ; [DPU_3_PIPE] |864| 
	.dwpsn	file "../utils/ff.c",line 763,column 2,is_stmt,isa 1
        CMP       A1, V2                ; [DPU_3_PIPE] |763| 
        BEQ       ||$C$L22||            ; [DPU_3_PIPE] |763| 
        ; BRANCHCC OCCURS {||$C$L22||}   ; [] |763| 
;* --------------------------------------------------------------------------*
	.dwpsn	file "../utils/ff.c",line 765,column 3,is_stmt,isa 1
        MOV       A1, V1                ; [DPU_3_PIPE] |765| 
$C$DW$68	.dwtag  DW_TAG_TI_branch
	.dwattr $C$DW$68, DW_AT_low_pc(0x00)
	.dwattr $C$DW$68, DW_AT_name("sync_window")
	.dwattr $C$DW$68, DW_AT_TI_call
        BL        sync_window           ; [DPU_3_PIPE] |765| 
        ; CALL OCCURS {sync_window }     ; [] |765| 
        CMP       A1, #0                ; [DPU_3_PIPE] |765| 
        BNE       ||$C$L25||            ; [DPU_3_PIPE] |765| 
        ; BRANCHCC OCCURS {||$C$L25||}   ; [] |765| 
;* --------------------------------------------------------------------------*
	.dwpsn	file "../utils/ff.c",line 768,column 3,is_stmt,isa 1
        LDRB      A1, [V1, #1]          ; [DPU_3_PIPE] |768| 
        ADD       A2, V1, #52           ; [DPU_3_PIPE] |768| 
        MOV       A3, V2                ; [DPU_3_PIPE] |768| 
        MOVS      A4, #1                ; [DPU_3_PIPE] |768| 
$C$DW$69	.dwtag  DW_TAG_TI_branch
	.dwattr $C$DW$69, DW_AT_low_pc(0x00)
	.dwattr $C$DW$69, DW_AT_name("disk_read")
	.dwattr $C$DW$69, DW_AT_TI_call
        BL        disk_read             ; [DPU_3_PIPE] |768| 
        ; CALL OCCURS {disk_read }       ; [] |768| 
        CMP       A1, #0                ; [DPU_3_PIPE] |768| 
        BNE       ||$C$L25||            ; [DPU_3_PIPE] |768| 
        ; BRANCHCC OCCURS {||$C$L25||}   ; [] |768| 
;* --------------------------------------------------------------------------*
	.dwcfi	remember_state
	.dwpsn	file "../utils/ff.c",line 770,column 3,is_stmt,isa 1
        STR       V2, [V1, #48]         ; [DPU_3_PIPE] |770| 
;* --------------------------------------------------------------------------*
||$C$L22||:    
	.dwpsn	file "../utils/ff.c",line 866,column 3,is_stmt,isa 1
        LSLS      A1, V4, #1            ; [DPU_3_PIPE] |866| 
        AND       A1, A1, #510          ; [DPU_3_PIPE] |866| 
        ADDS      V1, V1, A1            ; [DPU_3_PIPE] |866| 
        LDRB      A2, [V1, #53]         ; [DPU_3_PIPE] |866| 
        LDRB      A1, [V1, #52]         ; [DPU_3_PIPE] |866| 
        ORR       A1, A1, A2, LSL #8    ; [DPU_3_PIPE] |866| 
$C$DW$70	.dwtag  DW_TAG_TI_branch
	.dwattr $C$DW$70, DW_AT_low_pc(0x00)
	.dwattr $C$DW$70, DW_AT_TI_return
        POP       {V1, V2, V3, V4, V5, PC} ; [DPU_3_PIPE] 
	.dwcfi	cfa_offset, 0
        ; BRANCH OCCURS                  ; [] 
	.dwcfi	restore_reg, 8
	.dwcfi	restore_reg, 7
	.dwcfi	restore_reg, 6
	.dwcfi	restore_reg, 5
	.dwcfi	restore_reg, 4
	.dwcfi	restore_state
;* --------------------------------------------------------------------------*
	.align	8
||$C$L23||:    
	.dwpsn	file "../utils/ff.c",line 857,column 53,is_stmt,isa 1
        LDR       V2, [V1, #36]         ; [DPU_3_PIPE] |857| 
	.dwpsn	file "../utils/ff.c",line 763,column 2,is_stmt,isa 1
        LDR       A1, [V1, #48]         ; [DPU_3_PIPE] |763| 
	.dwpsn	file "../utils/ff.c",line 856,column 20,is_stmt,isa 1
        ADD       V5, V4, V4, LSR #1    ; [DPU_3_PIPE] |856| 
	.dwpsn	file "../utils/ff.c",line 857,column 53,is_stmt,isa 1
        LSR       V3, V5, #9            ; [DPU_3_PIPE] |857| 
	.dwpsn	file "../utils/ff.c",line 763,column 2,is_stmt,isa 1
        ADDS      A2, V3, V2            ; [DPU_3_PIPE] |763| 
        CMP       A1, A2                ; [DPU_3_PIPE] |763| 
	.dwpsn	file "../utils/ff.c",line 857,column 53,is_stmt,isa 1
        ADD       V3, V3, V2            ; [DPU_3_PIPE] |857| 
	.dwpsn	file "../utils/ff.c",line 763,column 2,is_stmt,isa 1
        BEQ       ||$C$L24||            ; [DPU_3_PIPE] |763| 
        ; BRANCHCC OCCURS {||$C$L24||}   ; [] |763| 
;* --------------------------------------------------------------------------*
	.dwpsn	file "../utils/ff.c",line 765,column 3,is_stmt,isa 1
        MOV       A1, V1                ; [DPU_3_PIPE] |765| 
$C$DW$71	.dwtag  DW_TAG_TI_branch
	.dwattr $C$DW$71, DW_AT_low_pc(0x00)
	.dwattr $C$DW$71, DW_AT_name("sync_window")
	.dwattr $C$DW$71, DW_AT_TI_call
        BL        sync_window           ; [DPU_3_PIPE] |765| 
        ; CALL OCCURS {sync_window }     ; [] |765| 
        CBNZ      A1, ||$C$L25||        ; [] 
        ; BRANCHCC OCCURS {||$C$L25||}   ; [] |765| 
;* --------------------------------------------------------------------------*
	.dwpsn	file "../utils/ff.c",line 768,column 3,is_stmt,isa 1
        LDRB      A1, [V1, #1]          ; [DPU_3_PIPE] |768| 
        ADD       A2, V1, #52           ; [DPU_3_PIPE] |768| 
        MOV       A3, V3                ; [DPU_3_PIPE] |768| 
        MOVS      A4, #1                ; [DPU_3_PIPE] |768| 
$C$DW$72	.dwtag  DW_TAG_TI_branch
	.dwattr $C$DW$72, DW_AT_low_pc(0x00)
	.dwattr $C$DW$72, DW_AT_name("disk_read")
	.dwattr $C$DW$72, DW_AT_TI_call
        BL        disk_read             ; [DPU_3_PIPE] |768| 
        ; CALL OCCURS {disk_read }       ; [] |768| 
        CBNZ      A1, ||$C$L25||        ; [] 
        ; BRANCHCC OCCURS {||$C$L25||}   ; [] |768| 
;* --------------------------------------------------------------------------*
	.dwpsn	file "../utils/ff.c",line 770,column 3,is_stmt,isa 1
        MOV       A1, V3                ; [DPU_3_PIPE] |770| 
        LDR       V2, [V1, #36]         ; [DPU_3_PIPE] 
        STR       A1, [V1, #48]         ; [DPU_3_PIPE] |770| 
;* --------------------------------------------------------------------------*
||$C$L24||:    
	.dwpsn	file "../utils/ff.c",line 858,column 3,is_stmt,isa 1
        UBFX      A2, V5, #0, #9        ; [DPU_3_PIPE] |858| 
        ADDS      A2, V1, A2            ; [DPU_3_PIPE] |858| 
        LDRB      V3, [A2, #52]         ; [DPU_3_PIPE] |858| 
	.dwpsn	file "../utils/ff.c",line 763,column 2,is_stmt,isa 1
        ADD       V5, V5, #1            ; [DPU_3_PIPE] |763| 
        ADD       V2, V2, V5, LSR #9    ; [DPU_3_PIPE] |763| 
        CMP       A1, V2                ; [DPU_3_PIPE] |763| 
        BEQ       ||$C$L27||            ; [DPU_3_PIPE] |763| 
        ; BRANCHCC OCCURS {||$C$L27||}   ; [] |763| 
;* --------------------------------------------------------------------------*
	.dwpsn	file "../utils/ff.c",line 765,column 3,is_stmt,isa 1
        MOV       A1, V1                ; [DPU_3_PIPE] |765| 
$C$DW$73	.dwtag  DW_TAG_TI_branch
	.dwattr $C$DW$73, DW_AT_low_pc(0x00)
	.dwattr $C$DW$73, DW_AT_name("sync_window")
	.dwattr $C$DW$73, DW_AT_TI_call
        BL        sync_window           ; [DPU_3_PIPE] |765| 
        ; CALL OCCURS {sync_window }     ; [] |765| 
        CBNZ      A1, ||$C$L25||        ; [] 
        ; BRANCHCC OCCURS {||$C$L25||}   ; [] |765| 
;* --------------------------------------------------------------------------*
	.dwpsn	file "../utils/ff.c",line 768,column 3,is_stmt,isa 1
        LDRB      A1, [V1, #1]          ; [DPU_3_PIPE] |768| 
        ADD       A2, V1, #52           ; [DPU_3_PIPE] |768| 
        MOV       A3, V2                ; [DPU_3_PIPE] |768| 
        MOVS      A4, #1                ; [DPU_3_PIPE] |768| 
$C$DW$74	.dwtag  DW_TAG_TI_branch
	.dwattr $C$DW$74, DW_AT_low_pc(0x00)
	.dwattr $C$DW$74, DW_AT_name("disk_read")
	.dwattr $C$DW$74, DW_AT_TI_call
        BL        disk_read             ; [DPU_3_PIPE] |768| 
        ; CALL OCCURS {disk_read }       ; [] |768| 
        CBZ       A1, ||$C$L26||        ; [] 
        ; BRANCHCC OCCURS {||$C$L26||}   ; [] |768| 
;* --------------------------------------------------------------------------*
||$C$L25||:    
	.dwcfi	remember_state
	.dwpsn	file "../utils/ff.c",line 874,column 2,is_stmt,isa 1
        MOV       A1, #-1               ; [DPU_3_PIPE] |874| 
$C$DW$75	.dwtag  DW_TAG_TI_branch
	.dwattr $C$DW$75, DW_AT_low_pc(0x00)
	.dwattr $C$DW$75, DW_AT_TI_return
        POP       {V1, V2, V3, V4, V5, PC} ; [DPU_3_PIPE] 
	.dwcfi	cfa_offset, 0
        ; BRANCH OCCURS                  ; [] 
	.dwcfi	restore_reg, 8
	.dwcfi	restore_reg, 7
	.dwcfi	restore_reg, 6
	.dwcfi	restore_reg, 5
	.dwcfi	restore_reg, 4
	.dwcfi	restore_state
;* --------------------------------------------------------------------------*
||$C$L26||:    
	.dwpsn	file "../utils/ff.c",line 770,column 3,is_stmt,isa 1
        STR       V2, [V1, #48]         ; [DPU_3_PIPE] |770| 
;* --------------------------------------------------------------------------*
||$C$L27||:    
	.dwpsn	file "../utils/ff.c",line 860,column 3,is_stmt,isa 1
        UBFX      A1, V5, #0, #9        ; [DPU_3_PIPE] |860| 
        ADDS      V1, V1, A1            ; [DPU_3_PIPE] |860| 
        LDRB      A1, [V1, #52]         ; [DPU_3_PIPE] |860| 
        ORR       V3, V3, A1, LSL #8    ; [DPU_3_PIPE] |860| 
	.dwpsn	file "../utils/ff.c",line 861,column 3,is_stmt,isa 1
        LSRS      A1, V4, #1            ; [DPU_3_PIPE] |861| 
        ITE       CS                    ; [DPU_3_PIPE] 
        LSRCS     A1, V3, #4            ; [DPU_3_PIPE] |861| 
        UBFXCC    A1, V3, #0, #12       ; [DPU_3_PIPE] |861| 
;* --------------------------------------------------------------------------*
$C$DW$76	.dwtag  DW_TAG_TI_branch
	.dwattr $C$DW$76, DW_AT_low_pc(0x00)
	.dwattr $C$DW$76, DW_AT_TI_return
        POP       {V1, V2, V3, V4, V5, PC} ; [DPU_3_PIPE] 
	.dwcfi	cfa_offset, 0
        ; BRANCH OCCURS                  ; [] 
	.dwattr $C$DW$54, DW_AT_TI_end_file("../utils/ff.c")
	.dwattr $C$DW$54, DW_AT_TI_end_line(0x36b)
	.dwattr $C$DW$54, DW_AT_TI_end_column(0x01)
	.dwendentry
	.dwendtag $C$DW$54

	.sect	".text"
	.align	8
	.clink
	.thumbfunc create_chain
	.thumb

$C$DW$77	.dwtag  DW_TAG_subprogram, DW_AT_name("create_chain")
	.dwattr $C$DW$77, DW_AT_low_pc(create_chain)
	.dwattr $C$DW$77, DW_AT_high_pc(0x00)
	.dwattr $C$DW$77, DW_AT_TI_symbol_name("create_chain")
	.dwattr $C$DW$77, DW_AT_type(*$C$DW$T$21)
	.dwattr $C$DW$77, DW_AT_TI_begin_file("../utils/ff.c")
	.dwattr $C$DW$77, DW_AT_TI_begin_line(0x3e9)
	.dwattr $C$DW$77, DW_AT_TI_begin_column(0x07)
	.dwattr $C$DW$77, DW_AT_decl_file("../utils/ff.c")
	.dwattr $C$DW$77, DW_AT_decl_line(0x3e9)
	.dwattr $C$DW$77, DW_AT_decl_column(0x07)
	.dwattr $C$DW$77, DW_AT_TI_max_frame_size(0x18)
	.dwpsn	file "../utils/ff.c",line 1005,column 1,is_stmt,address create_chain,isa 1

	.dwfde $C$DW$CIE, create_chain
$C$DW$78	.dwtag  DW_TAG_formal_parameter, DW_AT_name("fs")
	.dwattr $C$DW$78, DW_AT_TI_symbol_name("fs")
	.dwattr $C$DW$78, DW_AT_type(*$C$DW$T$25)
	.dwattr $C$DW$78, DW_AT_location[DW_OP_reg0]
$C$DW$79	.dwtag  DW_TAG_formal_parameter, DW_AT_name("clst")
	.dwattr $C$DW$79, DW_AT_TI_symbol_name("clst")
	.dwattr $C$DW$79, DW_AT_type(*$C$DW$T$21)
	.dwattr $C$DW$79, DW_AT_location[DW_OP_reg1]

;*****************************************************************************
;* FUNCTION NAME: create_chain                                               *
;*                                                                           *
;*   Regs Modified     : A1,A2,A3,A4,V1,V2,V3,V4,V9,SP,LR,SR,D0,D0_hi,D1,    *
;*                           D1_hi,D2,D2_hi,D3,D3_hi,D4,D4_hi,D5,D5_hi,D6,   *
;*                           D6_hi,D7,D7_hi,FPEXC,FPSCR                      *
;*   Regs Used         : A1,A2,A3,A4,V1,V2,V3,V4,V9,SP,LR,SR,D0,D0_hi,D1,    *
;*                           D1_hi,D2,D2_hi,D3,D3_hi,D4,D4_hi,D5,D5_hi,D6,   *
;*                           D6_hi,D7,D7_hi,FPEXC,FPSCR                      *
;*   Local Frame Size  : 0 Args + 0 Auto + 20 Save = 20 byte                 *
;*****************************************************************************
create_chain:
;* --------------------------------------------------------------------------*
;* A1    assigned to $O$C1
;* A1    assigned to cs
$C$DW$80	.dwtag  DW_TAG_variable, DW_AT_name("cs")
	.dwattr $C$DW$80, DW_AT_TI_symbol_name("cs")
	.dwattr $C$DW$80, DW_AT_type(*$C$DW$T$21)
	.dwattr $C$DW$80, DW_AT_location[DW_OP_reg0]
;* A1    assigned to cs
$C$DW$81	.dwtag  DW_TAG_variable, DW_AT_name("cs")
	.dwattr $C$DW$81, DW_AT_TI_symbol_name("cs")
	.dwattr $C$DW$81, DW_AT_type(*$C$DW$T$21)
	.dwattr $C$DW$81, DW_AT_location[DW_OP_reg0]
;* V4    assigned to ncl
$C$DW$82	.dwtag  DW_TAG_variable, DW_AT_name("ncl")
	.dwattr $C$DW$82, DW_AT_TI_symbol_name("ncl")
	.dwattr $C$DW$82, DW_AT_type(*$C$DW$T$21)
	.dwattr $C$DW$82, DW_AT_location[DW_OP_reg7]
;* V2    assigned to fs
$C$DW$83	.dwtag  DW_TAG_variable, DW_AT_name("fs")
	.dwattr $C$DW$83, DW_AT_TI_symbol_name("fs")
	.dwattr $C$DW$83, DW_AT_type(*$C$DW$T$131)
	.dwattr $C$DW$83, DW_AT_location[DW_OP_reg5]
;* V1    assigned to clst
$C$DW$84	.dwtag  DW_TAG_variable, DW_AT_name("clst")
	.dwattr $C$DW$84, DW_AT_TI_symbol_name("clst")
	.dwattr $C$DW$84, DW_AT_type(*$C$DW$T$208)
	.dwattr $C$DW$84, DW_AT_location[DW_OP_reg4]
;* V3    assigned to scl
$C$DW$85	.dwtag  DW_TAG_variable, DW_AT_name("scl")
	.dwattr $C$DW$85, DW_AT_TI_symbol_name("scl")
	.dwattr $C$DW$85, DW_AT_type(*$C$DW$T$21)
	.dwattr $C$DW$85, DW_AT_location[DW_OP_reg6]
;* A1    assigned to res
$C$DW$86	.dwtag  DW_TAG_variable, DW_AT_name("res")
	.dwattr $C$DW$86, DW_AT_TI_symbol_name("res")
	.dwattr $C$DW$86, DW_AT_type(*$C$DW$T$10)
	.dwattr $C$DW$86, DW_AT_location[DW_OP_reg0]
	.dwcfi	cfa_offset, 0
        PUSH      {A4, V1, V2, V3, V4, LR} ; [DPU_3_PIPE] 
	.dwcfi	cfa_offset, 24
	.dwcfi	save_reg_to_mem, 14, -4
	.dwcfi	save_reg_to_mem, 7, -8
	.dwcfi	save_reg_to_mem, 6, -12
	.dwcfi	save_reg_to_mem, 5, -16
	.dwcfi	save_reg_to_mem, 4, -20
	.dwcfi	save_reg_to_mem, 3, -24
	.dwpsn	file "../utils/ff.c",line 1010,column 2,is_stmt,isa 1
        MOVS      V1, A2                ; [DPU_3_PIPE] |1010| 
	.dwpsn	file "../utils/ff.c",line 1005,column 1,is_stmt,isa 1
        MOV       V2, A1                ; [DPU_3_PIPE] |1005| 
	.dwpsn	file "../utils/ff.c",line 1010,column 2,is_stmt,isa 1
        BNE       ||$C$L29||            ; [DPU_3_PIPE] |1010| 
        ; BRANCHCC OCCURS {||$C$L29||}   ; [] |1010| 
;* --------------------------------------------------------------------------*
	.dwpsn	file "../utils/ff.c",line 1011,column 3,is_stmt,isa 1
        LDR       V3, [V2, #12]         ; [DPU_3_PIPE] |1011| 
        CBZ       V3, ||$C$L28||        ; [] 
        ; BRANCHCC OCCURS {||$C$L28||}   ; [] |1011| 
;* --------------------------------------------------------------------------*
	.dwpsn	file "../utils/ff.c",line 1012,column 3,is_stmt,isa 1
        LDR       A1, [V2, #24]         ; [DPU_3_PIPE] |1012| 
        CMP       A1, V3                ; [DPU_3_PIPE] |1012| 
        BHI       ||$C$L30||            ; [DPU_3_PIPE] |1012| 
        ; BRANCHCC OCCURS {||$C$L30||}   ; [] |1012| 
;* --------------------------------------------------------------------------*
||$C$L28||:    
	.dwpsn	file "../utils/ff.c",line 1012,column 36,is_stmt,isa 1
        MOVS      V3, #1                ; [DPU_3_PIPE] |1012| 
        B         ||$C$L30||            ; [DPU_3_PIPE] |1012| 
        ; BRANCH OCCURS {||$C$L30||}     ; [] |1012| 
;* --------------------------------------------------------------------------*
	.align	8
||$C$L29||:    
	.dwpsn	file "../utils/ff.c",line 1015,column 3,is_stmt,isa 1
$C$DW$87	.dwtag  DW_TAG_TI_branch
	.dwattr $C$DW$87, DW_AT_low_pc(0x00)
	.dwattr $C$DW$87, DW_AT_name("get_fat")
	.dwattr $C$DW$87, DW_AT_TI_call
        BL        get_fat               ; [DPU_3_PIPE] |1015| 
        ; CALL OCCURS {get_fat }         ; [] |1015| 
        CMP       A1, #2                ; [DPU_3_PIPE] |1015| 
        BCC       ||$C$L35||            ; [DPU_3_PIPE] |1015| 
        ; BRANCHCC OCCURS {||$C$L35||}   ; [] |1015| 
;* --------------------------------------------------------------------------*
	.dwpsn	file "../utils/ff.c",line 1017,column 3,is_stmt,isa 1
        LDR       A2, [V2, #24]         ; [DPU_3_PIPE] |1017| 
        CMP       A2, A1                ; [DPU_3_PIPE] |1017| 
        BHI       ||$C$L40||            ; [DPU_3_PIPE] |1017| 
        ; BRANCHCC OCCURS {||$C$L40||}   ; [] |1017| 
;* --------------------------------------------------------------------------*
	.dwpsn	file "../utils/ff.c",line 1018,column 3,is_stmt,isa 1
        MOV       V3, V1                ; [DPU_3_PIPE] |1018| 
;* --------------------------------------------------------------------------*
||$C$L30||:    
	.dwpsn	file "../utils/ff.c",line 1021,column 2,is_stmt,isa 1
        MOV       V4, V3                ; [DPU_3_PIPE] |1021| 
;* --------------------------------------------------------------------------*
;*   BEGIN LOOP ||$C$L31||
;*
;*   Loop source line                : 1022
;*   Loop closing brace source line  : 1033
;*   Known Minimum Trip Count        : 1
;*   Known Maximum Trip Count        : 4294967295
;*   Known Max Trip Count Factor     : 1
;* --------------------------------------------------------------------------*
	.align	8
||$C$L31||:    
	.dwpsn	file "../utils/ff.c",line 1024,column 3,is_stmt,isa 1
        LDR       A1, [V2, #24]         ; [DPU_3_PIPE] |1024| 
        ADDS      V4, V4, #1            ; [DPU_3_PIPE] |1024| 
        CMP       A1, V4                ; [DPU_3_PIPE] |1024| 
        BHI       ||$C$L32||            ; [DPU_3_PIPE] |1024| 
        ; BRANCHCC OCCURS {||$C$L32||}   ; [] |1024| 
;* --------------------------------------------------------------------------*
	.dwpsn	file "../utils/ff.c",line 1026,column 4,is_stmt,isa 1
        CMP       V3, #2                ; [DPU_3_PIPE] |1026| 
        BCC       ||$C$L39||            ; [DPU_3_PIPE] |1026| 
        ; BRANCHCC OCCURS {||$C$L39||}   ; [] |1026| 
;* --------------------------------------------------------------------------*
	.dwpsn	file "../utils/ff.c",line 1025,column 4,is_stmt,isa 1
        MOVS      V4, #2                ; [DPU_3_PIPE] |1025| 
;* --------------------------------------------------------------------------*
||$C$L32||:    
	.dwpsn	file "../utils/ff.c",line 1028,column 3,is_stmt,isa 1
        MOV       A1, V2                ; [DPU_3_PIPE] |1028| 
        MOV       A2, V4                ; [DPU_3_PIPE] |1028| 
$C$DW$88	.dwtag  DW_TAG_TI_branch
	.dwattr $C$DW$88, DW_AT_low_pc(0x00)
	.dwattr $C$DW$88, DW_AT_name("get_fat")
	.dwattr $C$DW$88, DW_AT_TI_call
        BL        get_fat               ; [DPU_3_PIPE] |1028| 
        ; CALL OCCURS {get_fat }         ; [] |1028| 
        CBNZ      A1, ||$C$L38||        ; [] 
        ; BRANCHCC OCCURS {||$C$L38||}   ; [] |1028| 
;* --------------------------------------------------------------------------*
	.dwpsn	file "../utils/ff.c",line 1035,column 2,is_stmt,isa 1
        MOV       A1, V2                ; [DPU_3_PIPE] |1035| 
        MOV       A2, V4                ; [DPU_3_PIPE] |1035| 
        MVN       A3, #-268435456       ; [DPU_3_PIPE] |1035| 
$C$DW$89	.dwtag  DW_TAG_TI_branch
	.dwattr $C$DW$89, DW_AT_low_pc(0x00)
	.dwattr $C$DW$89, DW_AT_name("put_fat")
	.dwattr $C$DW$89, DW_AT_TI_call
        BL        put_fat               ; [DPU_3_PIPE] |1035| 
        ; CALL OCCURS {put_fat }         ; [] |1035| 
        CBNZ      A1, ||$C$L34||        ; [] 
        ; BRANCHCC OCCURS {||$C$L34||}   ; [] |1035| 
;* --------------------------------------------------------------------------*
        CBZ       V1, ||$C$L33||        ; [] 
	.dwpsn	file "../utils/ff.c",line 1036,column 2,is_stmt,isa 1
        ; BRANCHCC OCCURS {||$C$L33||}   ; [] |1036| 
;* --------------------------------------------------------------------------*
	.dwpsn	file "../utils/ff.c",line 1037,column 3,is_stmt,isa 1
        MOV       A1, V2                ; [DPU_3_PIPE] |1037| 
        MOV       A2, V1                ; [DPU_3_PIPE] |1037| 
        MOV       A3, V4                ; [DPU_3_PIPE] |1037| 
$C$DW$90	.dwtag  DW_TAG_TI_branch
	.dwattr $C$DW$90, DW_AT_low_pc(0x00)
	.dwattr $C$DW$90, DW_AT_name("put_fat")
	.dwattr $C$DW$90, DW_AT_TI_call
        BL        put_fat               ; [DPU_3_PIPE] |1037| 
        ; CALL OCCURS {put_fat }         ; [] |1037| 
;* --------------------------------------------------------------------------*
||$C$L33||:    
        CBNZ      A1, ||$C$L34||        ; [] 
	.dwpsn	file "../utils/ff.c",line 1039,column 2,is_stmt,isa 1
        ; BRANCHCC OCCURS {||$C$L34||}   ; [] |1039| 
;* --------------------------------------------------------------------------*
	.dwpsn	file "../utils/ff.c",line 1041,column 3,is_stmt,isa 1
        LDR       A1, [V2, #16]         ; [DPU_3_PIPE] |1041| 
	.dwpsn	file "../utils/ff.c",line 1040,column 3,is_stmt,isa 1
        STR       V4, [V2, #12]         ; [DPU_3_PIPE] |1040| 
	.dwpsn	file "../utils/ff.c",line 1041,column 3,is_stmt,isa 1
        CMP       A1, #-1               ; [DPU_3_PIPE] |1041| 
        BEQ       ||$C$L37||            ; [DPU_3_PIPE] |1041| 
        ; BRANCHCC OCCURS {||$C$L37||}   ; [] |1041| 
;* --------------------------------------------------------------------------*
	.dwcfi	remember_state
	.dwpsn	file "../utils/ff.c",line 1042,column 4,is_stmt,isa 1
        SUBS      A1, A1, #1            ; [DPU_3_PIPE] |1042| 
        STR       A1, [V2, #16]         ; [DPU_3_PIPE] |1042| 
	.dwpsn	file "../utils/ff.c",line 1043,column 4,is_stmt,isa 1
        MOVS      A2, #1                ; [DPU_3_PIPE] |1043| 
        STRB      A2, [V2, #5]          ; [DPU_3_PIPE] |1043| 
	.dwpsn	file "../utils/ff.c",line 1049,column 2,is_stmt,isa 1
        MOV       A1, V4                ; [DPU_3_PIPE] |1049| 
$C$DW$91	.dwtag  DW_TAG_TI_branch
	.dwattr $C$DW$91, DW_AT_low_pc(0x00)
	.dwattr $C$DW$91, DW_AT_TI_return
        POP       {A4, V1, V2, V3, V4, PC} ; [DPU_3_PIPE] 
	.dwcfi	cfa_offset, 0
        ; BRANCH OCCURS                  ; [] 
	.dwcfi	restore_reg, 7
	.dwcfi	restore_reg, 6
	.dwcfi	restore_reg, 5
	.dwcfi	restore_reg, 4
	.dwcfi	restore_reg, 3
	.dwcfi	restore_state
;* --------------------------------------------------------------------------*
	.align	8
||$C$L34||:    
	.dwpsn	file "../utils/ff.c",line 1046,column 3,is_stmt,isa 1
        CMP       A1, #1                ; [DPU_3_PIPE] |1046| 
        BEQ       ||$C$L36||            ; [DPU_3_PIPE] |1046| 
        ; BRANCHCC OCCURS {||$C$L36||}   ; [] |1046| 
;* --------------------------------------------------------------------------*
||$C$L35||:    
	.dwcfi	remember_state
	.dwpsn	file "../utils/ff.c",line 1049,column 2,is_stmt,isa 1
        MOVS      A1, #1                ; [DPU_3_PIPE] |1049| 
$C$DW$92	.dwtag  DW_TAG_TI_branch
	.dwattr $C$DW$92, DW_AT_low_pc(0x00)
	.dwattr $C$DW$92, DW_AT_TI_return
        POP       {A4, V1, V2, V3, V4, PC} ; [DPU_3_PIPE] 
	.dwcfi	cfa_offset, 0
        ; BRANCH OCCURS                  ; [] 
	.dwcfi	restore_reg, 7
	.dwcfi	restore_reg, 6
	.dwcfi	restore_reg, 5
	.dwcfi	restore_reg, 4
	.dwcfi	restore_reg, 3
	.dwcfi	restore_state
;* --------------------------------------------------------------------------*
||$C$L36||:    
	.dwcfi	remember_state
	.dwpsn	file "../utils/ff.c",line 1046,column 3,is_stmt,isa 1
        MOV       V4, #-1               ; [DPU_3_PIPE] |1046| 
;* --------------------------------------------------------------------------*
||$C$L37||:    
	.dwpsn	file "../utils/ff.c",line 1049,column 2,is_stmt,isa 1
        MOV       A1, V4                ; [DPU_3_PIPE] |1049| 
$C$DW$93	.dwtag  DW_TAG_TI_branch
	.dwattr $C$DW$93, DW_AT_low_pc(0x00)
	.dwattr $C$DW$93, DW_AT_TI_return
        POP       {A4, V1, V2, V3, V4, PC} ; [DPU_3_PIPE] 
	.dwcfi	cfa_offset, 0
        ; BRANCH OCCURS                  ; [] 
	.dwcfi	restore_reg, 7
	.dwcfi	restore_reg, 6
	.dwcfi	restore_reg, 5
	.dwcfi	restore_reg, 4
	.dwcfi	restore_reg, 3
	.dwcfi	restore_state
;* --------------------------------------------------------------------------*
	.align	8
||$C$L38||:    
	.dwpsn	file "../utils/ff.c",line 1030,column 3,is_stmt,isa 1
        CMP       A1, #-1               ; [DPU_3_PIPE] |1030| 
        BEQ       ||$C$L40||            ; [DPU_3_PIPE] |1030| 
        ; BRANCHCC OCCURS {||$C$L40||}   ; [] |1030| 
;* --------------------------------------------------------------------------*
        CMP       A1, #1                ; [DPU_3_PIPE] |1030| 
        BEQ       ||$C$L40||            ; [DPU_3_PIPE] |1030| 
        ; BRANCHCC OCCURS {||$C$L40||}   ; [] |1030| 
;* --------------------------------------------------------------------------*
	.dwpsn	file "../utils/ff.c",line 1032,column 3,is_stmt,isa 1
        CMP       V3, V4                ; [DPU_3_PIPE] |1032| 
        BNE       ||$C$L31||            ; [DPU_3_PIPE] |1032| 
        ; BRANCHCC OCCURS {||$C$L31||}   ; [] |1032| 
;* --------------------------------------------------------------------------*
||$C$L39||:    
	.dwpsn	file "../utils/ff.c",line 1032,column 19,is_stmt,isa 1
        MOVS      A1, #0                ; [DPU_3_PIPE] |1032| 
;* --------------------------------------------------------------------------*
||$C$L40||:    
$C$DW$94	.dwtag  DW_TAG_TI_branch
	.dwattr $C$DW$94, DW_AT_low_pc(0x00)
	.dwattr $C$DW$94, DW_AT_TI_return
        POP       {A4, V1, V2, V3, V4, PC} ; [DPU_3_PIPE] 
	.dwcfi	cfa_offset, 0
        ; BRANCH OCCURS                  ; [] 
	.dwattr $C$DW$77, DW_AT_TI_end_file("../utils/ff.c")
	.dwattr $C$DW$77, DW_AT_TI_end_line(0x41a)
	.dwattr $C$DW$77, DW_AT_TI_end_column(0x01)
	.dwendentry
	.dwendtag $C$DW$77

	.sect	".text"
	.align	8
	.clink
	.thumbfunc clust2sect
	.thumb
	.global	clust2sect

$C$DW$95	.dwtag  DW_TAG_subprogram, DW_AT_name("clust2sect")
	.dwattr $C$DW$95, DW_AT_low_pc(clust2sect)
	.dwattr $C$DW$95, DW_AT_high_pc(0x00)
	.dwattr $C$DW$95, DW_AT_TI_symbol_name("clust2sect")
	.dwattr $C$DW$95, DW_AT_external
	.dwattr $C$DW$95, DW_AT_type(*$C$DW$T$21)
	.dwattr $C$DW$95, DW_AT_TI_begin_file("../utils/ff.c")
	.dwattr $C$DW$95, DW_AT_TI_begin_line(0x338)
	.dwattr $C$DW$95, DW_AT_TI_begin_column(0x07)
	.dwattr $C$DW$95, DW_AT_decl_file("../utils/ff.c")
	.dwattr $C$DW$95, DW_AT_decl_line(0x338)
	.dwattr $C$DW$95, DW_AT_decl_column(0x07)
	.dwattr $C$DW$95, DW_AT_TI_max_frame_size(0x00)
	.dwpsn	file "../utils/ff.c",line 828,column 1,is_stmt,address clust2sect,isa 1

	.dwfde $C$DW$CIE, clust2sect
$C$DW$96	.dwtag  DW_TAG_formal_parameter, DW_AT_name("fs")
	.dwattr $C$DW$96, DW_AT_TI_symbol_name("fs")
	.dwattr $C$DW$96, DW_AT_type(*$C$DW$T$25)
	.dwattr $C$DW$96, DW_AT_location[DW_OP_reg0]
$C$DW$97	.dwtag  DW_TAG_formal_parameter, DW_AT_name("clst")
	.dwattr $C$DW$97, DW_AT_TI_symbol_name("clst")
	.dwattr $C$DW$97, DW_AT_type(*$C$DW$T$21)
	.dwattr $C$DW$97, DW_AT_location[DW_OP_reg1]

;*****************************************************************************
;* FUNCTION NAME: clust2sect                                                 *
;*                                                                           *
;*   Regs Modified     : A1,A2,A3,SR                                         *
;*   Regs Used         : A1,A2,A3,LR,SR                                      *
;*   Local Frame Size  : 0 Args + 0 Auto + 0 Save = 0 byte                   *
;*****************************************************************************
clust2sect:
;* --------------------------------------------------------------------------*
;* A2    assigned to clst
$C$DW$98	.dwtag  DW_TAG_variable, DW_AT_name("clst")
	.dwattr $C$DW$98, DW_AT_TI_symbol_name("clst")
	.dwattr $C$DW$98, DW_AT_type(*$C$DW$T$21)
	.dwattr $C$DW$98, DW_AT_location[DW_OP_reg1]
;* A1    assigned to fs
$C$DW$99	.dwtag  DW_TAG_variable, DW_AT_name("fs")
	.dwattr $C$DW$99, DW_AT_TI_symbol_name("fs")
	.dwattr $C$DW$99, DW_AT_type(*$C$DW$T$131)
	.dwattr $C$DW$99, DW_AT_location[DW_OP_reg0]
	.dwcfi	cfa_offset, 0
	.dwpsn	file "../utils/ff.c",line 830,column 34,is_stmt,isa 1
        LDR       A3, [A1, #24]         ; [DPU_3_PIPE] |830| 
	.dwpsn	file "../utils/ff.c",line 830,column 2,is_stmt,isa 1
        SUBS      A2, A2, #2            ; [DPU_3_PIPE] |830| 
	.dwpsn	file "../utils/ff.c",line 830,column 34,is_stmt,isa 1
        SUBS      A3, A3, #2            ; [DPU_3_PIPE] |830| 
        CMP       A3, A2                ; [DPU_3_PIPE] |830| 
        IT        LS                    ; [DPU_3_PIPE] 
        MOVLS     A1, #0                ; [DPU_3_PIPE] |830| 
        BLS       ||$C$L41||            ; [DPU_3_PIPE] |830| 
        ; BRANCHCC OCCURS {||$C$L41||}   ; [] |830| 
;* --------------------------------------------------------------------------*
        LDRB      A3, [A1, #2]          ; [DPU_3_PIPE] |830| 
        LDR       A1, [A1, #44]         ; [DPU_3_PIPE] |830| 
        MLA       A1, A2, A3, A1        ; [DPU_3_PIPE] |830| 
;* --------------------------------------------------------------------------*
||$C$L41||:    
$C$DW$100	.dwtag  DW_TAG_TI_branch
	.dwattr $C$DW$100, DW_AT_low_pc(0x00)
	.dwattr $C$DW$100, DW_AT_TI_return
        BX        LR                    ; [DPU_3_PIPE] 
        ; BRANCH OCCURS                  ; [] 
	.dwattr $C$DW$95, DW_AT_TI_end_file("../utils/ff.c")
	.dwattr $C$DW$95, DW_AT_TI_end_line(0x340)
	.dwattr $C$DW$95, DW_AT_TI_end_column(0x01)
	.dwendentry
	.dwendtag $C$DW$95

	.sect	".text"
	.align	8
	.clink
	.thumbfunc f_write
	.thumb
	.global	f_write

$C$DW$101	.dwtag  DW_TAG_subprogram, DW_AT_name("f_write")
	.dwattr $C$DW$101, DW_AT_low_pc(f_write)
	.dwattr $C$DW$101, DW_AT_high_pc(0x00)
	.dwattr $C$DW$101, DW_AT_TI_symbol_name("f_write")
	.dwattr $C$DW$101, DW_AT_external
	.dwattr $C$DW$101, DW_AT_type(*$C$DW$T$53)
	.dwattr $C$DW$101, DW_AT_TI_begin_file("../utils/ff.c")
	.dwattr $C$DW$101, DW_AT_TI_begin_line(0x9ed)
	.dwattr $C$DW$101, DW_AT_TI_begin_column(0x09)
	.dwattr $C$DW$101, DW_AT_decl_file("../utils/ff.c")
	.dwattr $C$DW$101, DW_AT_decl_line(0x9ed)
	.dwattr $C$DW$101, DW_AT_decl_column(0x09)
	.dwattr $C$DW$101, DW_AT_TI_max_frame_size(0x28)
	.dwpsn	file "../utils/ff.c",line 2547,column 1,is_stmt,address f_write,isa 1

	.dwfde $C$DW$CIE, f_write
$C$DW$102	.dwtag  DW_TAG_formal_parameter, DW_AT_name("fp")
	.dwattr $C$DW$102, DW_AT_TI_symbol_name("fp")
	.dwattr $C$DW$102, DW_AT_type(*$C$DW$T$74)
	.dwattr $C$DW$102, DW_AT_location[DW_OP_reg0]
$C$DW$103	.dwtag  DW_TAG_formal_parameter, DW_AT_name("buff")
	.dwattr $C$DW$103, DW_AT_TI_symbol_name("buff")
	.dwattr $C$DW$103, DW_AT_type(*$C$DW$T$79)
	.dwattr $C$DW$103, DW_AT_location[DW_OP_reg1]
$C$DW$104	.dwtag  DW_TAG_formal_parameter, DW_AT_name("btw")
	.dwattr $C$DW$104, DW_AT_TI_symbol_name("btw")
	.dwattr $C$DW$104, DW_AT_type(*$C$DW$T$61)
	.dwattr $C$DW$104, DW_AT_location[DW_OP_reg2]
$C$DW$105	.dwtag  DW_TAG_formal_parameter, DW_AT_name("bw")
	.dwattr $C$DW$105, DW_AT_TI_symbol_name("bw")
	.dwattr $C$DW$105, DW_AT_type(*$C$DW$T$76)
	.dwattr $C$DW$105, DW_AT_location[DW_OP_reg3]

;*****************************************************************************
;* FUNCTION NAME: f_write                                                    *
;*                                                                           *
;*   Regs Modified     : A1,A2,A3,A4,V1,V2,V3,V4,V5,V6,V7,V8,V9,SP,LR,SR,D0, *
;*                           D0_hi,D1,D1_hi,D2,D2_hi,D3,D3_hi,D4,D4_hi,D5,   *
;*                           D5_hi,D6,D6_hi,D7,D7_hi,FPEXC,FPSCR             *
;*   Regs Used         : A1,A2,A3,A4,V1,V2,V3,V4,V5,V6,V7,V8,V9,SP,LR,SR,D0, *
;*                           D0_hi,D1,D1_hi,D2,D2_hi,D3,D3_hi,D4,D4_hi,D5,   *
;*                           D5_hi,D6,D6_hi,D7,D7_hi,FPEXC,FPSCR             *
;*   Local Frame Size  : 0 Args + 4 Auto + 36 Save = 40 byte                 *
;*****************************************************************************
f_write:
;* --------------------------------------------------------------------------*
;* A1    assigned to $O$C1
;* A1    assigned to $O$C2
;* A2    assigned to $O$C3
;* V9    assigned to $O$C4
;* A1    assigned to $O$C5
;* A1    assigned to $O$C6
;* V5    assigned to $O$C7
;* A2    assigned to $O$C8
;* A2    assigned to $O$C9
;* A1    assigned to $O$K6
;* V9    assigned to $O$U58
;* V2    assigned to $O$U53
;* A1    assigned to $O$U44
;* V5    assigned to fs
$C$DW$106	.dwtag  DW_TAG_variable, DW_AT_name("fs")
	.dwattr $C$DW$106, DW_AT_TI_symbol_name("fs")
	.dwattr $C$DW$106, DW_AT_type(*$C$DW$T$25)
	.dwattr $C$DW$106, DW_AT_location[DW_OP_reg8]
;* A1    assigned to cs
$C$DW$107	.dwtag  DW_TAG_variable, DW_AT_name("cs")
	.dwattr $C$DW$107, DW_AT_TI_symbol_name("cs")
	.dwattr $C$DW$107, DW_AT_type(*$C$DW$T$21)
	.dwattr $C$DW$107, DW_AT_location[DW_OP_reg0]
;* V3    assigned to ncl
$C$DW$108	.dwtag  DW_TAG_variable, DW_AT_name("ncl")
	.dwattr $C$DW$108, DW_AT_TI_symbol_name("ncl")
	.dwattr $C$DW$108, DW_AT_type(*$C$DW$T$21)
	.dwattr $C$DW$108, DW_AT_location[DW_OP_reg6]
;* V2    assigned to scl
$C$DW$109	.dwtag  DW_TAG_variable, DW_AT_name("scl")
	.dwattr $C$DW$109, DW_AT_TI_symbol_name("scl")
	.dwattr $C$DW$109, DW_AT_type(*$C$DW$T$21)
	.dwattr $C$DW$109, DW_AT_location[DW_OP_reg5]
;* A1    assigned to res
$C$DW$110	.dwtag  DW_TAG_variable, DW_AT_name("res")
	.dwattr $C$DW$110, DW_AT_TI_symbol_name("res")
	.dwattr $C$DW$110, DW_AT_type(*$C$DW$T$10)
	.dwattr $C$DW$110, DW_AT_location[DW_OP_reg0]
;* V5    assigned to fs
$C$DW$111	.dwtag  DW_TAG_variable, DW_AT_name("fs")
	.dwattr $C$DW$111, DW_AT_TI_symbol_name("fs")
	.dwattr $C$DW$111, DW_AT_type(*$C$DW$T$25)
	.dwattr $C$DW$111, DW_AT_location[DW_OP_reg8]
;* V7    assigned to clst
$C$DW$112	.dwtag  DW_TAG_variable, DW_AT_name("clst")
	.dwattr $C$DW$112, DW_AT_TI_symbol_name("clst")
	.dwattr $C$DW$112, DW_AT_type(*$C$DW$T$21)
	.dwattr $C$DW$112, DW_AT_location[DW_OP_reg10]
;* V3    assigned to ncl
$C$DW$113	.dwtag  DW_TAG_variable, DW_AT_name("ncl")
	.dwattr $C$DW$113, DW_AT_TI_symbol_name("ncl")
	.dwattr $C$DW$113, DW_AT_type(*$C$DW$T$21)
	.dwattr $C$DW$113, DW_AT_location[DW_OP_reg6]
;* V2    assigned to scl
$C$DW$114	.dwtag  DW_TAG_variable, DW_AT_name("scl")
	.dwattr $C$DW$114, DW_AT_TI_symbol_name("scl")
	.dwattr $C$DW$114, DW_AT_type(*$C$DW$T$21)
	.dwattr $C$DW$114, DW_AT_location[DW_OP_reg5]
;* A1    assigned to res
$C$DW$115	.dwtag  DW_TAG_variable, DW_AT_name("res")
	.dwattr $C$DW$115, DW_AT_TI_symbol_name("res")
	.dwattr $C$DW$115, DW_AT_type(*$C$DW$T$10)
	.dwattr $C$DW$115, DW_AT_location[DW_OP_reg0]
;* A1    assigned to cnt
$C$DW$116	.dwtag  DW_TAG_variable, DW_AT_name("cnt")
	.dwattr $C$DW$116, DW_AT_TI_symbol_name("cnt")
	.dwattr $C$DW$116, DW_AT_type(*$C$DW$T$61)
	.dwattr $C$DW$116, DW_AT_location[DW_OP_reg0]
;* A3    assigned to d
$C$DW$117	.dwtag  DW_TAG_variable, DW_AT_name("d")
	.dwattr $C$DW$117, DW_AT_TI_symbol_name("d")
	.dwattr $C$DW$117, DW_AT_type(*$C$DW$T$26)
	.dwattr $C$DW$117, DW_AT_location[DW_OP_reg2]
;* A2    assigned to s
$C$DW$118	.dwtag  DW_TAG_variable, DW_AT_name("s")
	.dwattr $C$DW$118, DW_AT_TI_symbol_name("s")
	.dwattr $C$DW$118, DW_AT_type(*$C$DW$T$43)
	.dwattr $C$DW$118, DW_AT_location[DW_OP_reg1]
;* V9    assigned to d
$C$DW$119	.dwtag  DW_TAG_variable, DW_AT_name("d")
	.dwattr $C$DW$119, DW_AT_TI_symbol_name("d")
	.dwattr $C$DW$119, DW_AT_type(*$C$DW$T$26)
	.dwattr $C$DW$119, DW_AT_location[DW_OP_reg12]
;* A2    assigned to s
$C$DW$120	.dwtag  DW_TAG_variable, DW_AT_name("s")
	.dwattr $C$DW$120, DW_AT_TI_symbol_name("s")
	.dwattr $C$DW$120, DW_AT_type(*$C$DW$T$43)
	.dwattr $C$DW$120, DW_AT_location[DW_OP_reg1]
;* V6    assigned to csect
$C$DW$121	.dwtag  DW_TAG_variable, DW_AT_name("csect")
	.dwattr $C$DW$121, DW_AT_TI_symbol_name("csect")
	.dwattr $C$DW$121, DW_AT_type(*$C$DW$T$10)
	.dwattr $C$DW$121, DW_AT_location[DW_OP_reg9]
;* V8    assigned to wbuff
$C$DW$122	.dwtag  DW_TAG_variable, DW_AT_name("wbuff")
	.dwattr $C$DW$122, DW_AT_TI_symbol_name("wbuff")
	.dwattr $C$DW$122, DW_AT_type(*$C$DW$T$43)
	.dwattr $C$DW$122, DW_AT_location[DW_OP_reg11]
;* V3    assigned to cc
$C$DW$123	.dwtag  DW_TAG_variable, DW_AT_name("cc")
	.dwattr $C$DW$123, DW_AT_TI_symbol_name("cc")
	.dwattr $C$DW$123, DW_AT_type(*$C$DW$T$61)
	.dwattr $C$DW$123, DW_AT_location[DW_OP_reg6]
;* V2    assigned to wcnt
$C$DW$124	.dwtag  DW_TAG_variable, DW_AT_name("wcnt")
	.dwattr $C$DW$124, DW_AT_TI_symbol_name("wcnt")
	.dwattr $C$DW$124, DW_AT_type(*$C$DW$T$61)
	.dwattr $C$DW$124, DW_AT_location[DW_OP_reg5]
;* V7    assigned to sect
$C$DW$125	.dwtag  DW_TAG_variable, DW_AT_name("sect")
	.dwattr $C$DW$125, DW_AT_TI_symbol_name("sect")
	.dwattr $C$DW$125, DW_AT_type(*$C$DW$T$21)
	.dwattr $C$DW$125, DW_AT_location[DW_OP_reg10]
$C$DW$126	.dwtag  DW_TAG_variable, DW_AT_name("bw")
	.dwattr $C$DW$126, DW_AT_TI_symbol_name("bw")
	.dwattr $C$DW$126, DW_AT_type(*$C$DW$T$199)
	.dwattr $C$DW$126, DW_AT_location[DW_OP_breg13 0]
;* V1    assigned to btw
$C$DW$127	.dwtag  DW_TAG_variable, DW_AT_name("btw")
	.dwattr $C$DW$127, DW_AT_TI_symbol_name("btw")
	.dwattr $C$DW$127, DW_AT_type(*$C$DW$T$61)
	.dwattr $C$DW$127, DW_AT_location[DW_OP_reg4]
;* V4    assigned to fp
$C$DW$128	.dwtag  DW_TAG_variable, DW_AT_name("fp")
	.dwattr $C$DW$128, DW_AT_TI_symbol_name("fp")
	.dwattr $C$DW$128, DW_AT_type(*$C$DW$T$146)
	.dwattr $C$DW$128, DW_AT_location[DW_OP_reg7]
;* A1    assigned to cs
$C$DW$129	.dwtag  DW_TAG_variable, DW_AT_name("cs")
	.dwattr $C$DW$129, DW_AT_TI_symbol_name("cs")
	.dwattr $C$DW$129, DW_AT_type(*$C$DW$T$21)
	.dwattr $C$DW$129, DW_AT_location[DW_OP_reg0]
;* A1    assigned to cs
$C$DW$130	.dwtag  DW_TAG_variable, DW_AT_name("cs")
	.dwattr $C$DW$130, DW_AT_TI_symbol_name("cs")
	.dwattr $C$DW$130, DW_AT_type(*$C$DW$T$21)
	.dwattr $C$DW$130, DW_AT_location[DW_OP_reg0]
;* A1    assigned to clst
$C$DW$131	.dwtag  DW_TAG_variable, DW_AT_name("clst")
	.dwattr $C$DW$131, DW_AT_TI_symbol_name("clst")
	.dwattr $C$DW$131, DW_AT_type(*$C$DW$T$21)
	.dwattr $C$DW$131, DW_AT_location[DW_OP_reg0]
;* A1    assigned to $O$d2
;* V5    assigned to $O$U13
;* V3    assigned to $O$U51
;* A2    assigned to $O$U51
	.dwcfi	cfa_offset, 0
        PUSH      {A4, V1, V2, V3, V4, V5, V6, V7, V8, LR} ; [DPU_3_PIPE] 
	.dwcfi	cfa_offset, 40
	.dwcfi	save_reg_to_mem, 14, -4
	.dwcfi	save_reg_to_mem, 11, -8
	.dwcfi	save_reg_to_mem, 10, -12
	.dwcfi	save_reg_to_mem, 9, -16
	.dwcfi	save_reg_to_mem, 8, -20
	.dwcfi	save_reg_to_mem, 7, -24
	.dwcfi	save_reg_to_mem, 6, -28
	.dwcfi	save_reg_to_mem, 5, -32
	.dwcfi	save_reg_to_mem, 4, -36
	.dwcfi	save_reg_to_mem, 3, -40
        MOV       V4, A1                ; [DPU_3_PIPE] |2547| 
	.dwpsn	file "../utils/ff.c",line 2555,column 2,is_stmt,isa 1
        MOVS      A1, #0                ; [DPU_3_PIPE] |2555| 
	.dwpsn	file "../utils/ff.c",line 2547,column 1,is_stmt,isa 1
        MOV       V1, A3                ; [DPU_3_PIPE] |2547| 
        MOV       V8, A2                ; [DPU_3_PIPE] |2547| 
        STR       A4, [SP, #0]          ; [DPU_3_PIPE] |2547| 
	.dwpsn	file "../utils/ff.c",line 2555,column 2,is_stmt,isa 1
        STR       A1, [A4, #0]          ; [DPU_3_PIPE] |2555| 
        CBZ       V4, ||$C$L42||        ; [] 
	.dwpsn	file "../utils/ff.c",line 2242,column 2,is_stmt,isa 1
        ; BRANCHCC OCCURS {||$C$L42||}   ; [] |2242| 
;* --------------------------------------------------------------------------*
        LDR       A2, [V4, #0]          ; [DPU_3_PIPE] |2242| 
        CBZ       A2, ||$C$L42||        ; [] 
        ; BRANCHCC OCCURS {||$C$L42||}   ; [] |2242| 
;* --------------------------------------------------------------------------*
        LDRB      A1, [A2, #0]          ; [DPU_3_PIPE] |2242| 
        CBZ       A1, ||$C$L42||        ; [] 
        ; BRANCHCC OCCURS {||$C$L42||}   ; [] |2242| 
;* --------------------------------------------------------------------------*
        LDRH      A1, [V4, #4]          ; [DPU_3_PIPE] |2242| 
        LDRH      A3, [A2, #6]          ; [DPU_3_PIPE] |2242| 
        CMP       A1, A3                ; [DPU_3_PIPE] |2242| 
        BEQ       ||$C$L43||            ; [DPU_3_PIPE] |2242| 
        ; BRANCHCC OCCURS {||$C$L43||}   ; [] |2242| 
;* --------------------------------------------------------------------------*
||$C$L42||:    
	.dwcfi	remember_state
	.dwpsn	file "../utils/ff.c",line 2558,column 20,is_stmt,isa 1
        MOVS      A1, #9                ; [DPU_3_PIPE] |2558| 
$C$DW$132	.dwtag  DW_TAG_TI_branch
	.dwattr $C$DW$132, DW_AT_low_pc(0x00)
	.dwattr $C$DW$132, DW_AT_TI_return
        POP       {A4, V1, V2, V3, V4, V5, V6, V7, V8, PC} ; [DPU_3_PIPE] 
	.dwcfi	cfa_offset, 0
        ; BRANCH OCCURS                  ; [] 
	.dwcfi	restore_reg, 11
	.dwcfi	restore_reg, 10
	.dwcfi	restore_reg, 9
	.dwcfi	restore_reg, 8
	.dwcfi	restore_reg, 7
	.dwcfi	restore_reg, 6
	.dwcfi	restore_reg, 5
	.dwcfi	restore_reg, 4
	.dwcfi	restore_reg, 3
	.dwcfi	restore_state
;* --------------------------------------------------------------------------*
	.align	8
||$C$L43||:    
	.dwpsn	file "../utils/ff.c",line 2247,column 2,is_stmt,isa 1
        LDRB      A1, [A2, #1]          ; [DPU_3_PIPE] |2247| 
$C$DW$133	.dwtag  DW_TAG_TI_branch
	.dwattr $C$DW$133, DW_AT_low_pc(0x00)
	.dwattr $C$DW$133, DW_AT_name("disk_status")
	.dwattr $C$DW$133, DW_AT_TI_call
        BL        disk_status           ; [DPU_3_PIPE] |2247| 
        ; CALL OCCURS {disk_status }     ; [] |2247| 
        LSRS      A1, A1, #1            ; [DPU_3_PIPE] |2247| 
        IT        CS                    ; [DPU_3_PIPE] 
	.dwpsn	file "../utils/ff.c",line 2558,column 20,is_stmt,isa 1
        MOVCS     A1, #3                ; [DPU_3_PIPE] |2558| 
        BCS       ||$C$L88||            ; [DPU_3_PIPE] |2558| 
        ; BRANCHCC OCCURS {||$C$L88||}   ; [] |2558| 
;* --------------------------------------------------------------------------*
	.dwpsn	file "../utils/ff.c",line 2559,column 2,is_stmt,isa 1
        LDRB      A2, [V4, #6]          ; [DPU_3_PIPE] |2559| 
        BICS      A1, A2, #127          ; [DPU_3_PIPE] |2559| 
        IT        NE                    ; [DPU_3_PIPE] 
	.dwpsn	file "../utils/ff.c",line 2560,column 3,is_stmt,isa 1
        MOVNE     A1, #2                ; [DPU_3_PIPE] |2560| 
        BNE       ||$C$L88||            ; [DPU_3_PIPE] |2560| 
        ; BRANCHCC OCCURS {||$C$L88||}   ; [] |2560| 
;* --------------------------------------------------------------------------*
	.dwpsn	file "../utils/ff.c",line 2561,column 2,is_stmt,isa 1
        LSRS      A1, A2, #2            ; [DPU_3_PIPE] |2561| 
        IT        CC                    ; [DPU_3_PIPE] 
	.dwpsn	file "../utils/ff.c",line 2562,column 3,is_stmt,isa 1
        MOVCC     A1, #7                ; [DPU_3_PIPE] |2562| 
        BCC       ||$C$L88||            ; [DPU_3_PIPE] |2562| 
        ; BRANCHCC OCCURS {||$C$L88||}   ; [] |2562| 
;* --------------------------------------------------------------------------*
	.dwpsn	file "../utils/ff.c",line 2563,column 2,is_stmt,isa 1
        LDR       A1, [V4, #12]         ; [DPU_3_PIPE] |2563| 
        ADDS      A2, V1, A1            ; [DPU_3_PIPE] |2563| 
        CMP       A1, A2                ; [DPU_3_PIPE] |2563| 
        BHI       ||$C$L85||            ; [DPU_3_PIPE] |2563| 
        ; BRANCHCC OCCURS {||$C$L85||}   ; [] |2563| 
;* --------------------------------------------------------------------------*
	.dwpsn	file "../utils/ff.c",line 2565,column 2,is_stmt,isa 1
        CMP       V1, #0                ; [DPU_3_PIPE] |2565| 
        BEQ       ||$C$L83||            ; [DPU_3_PIPE] |2565| 
        ; BRANCHCC OCCURS {||$C$L83||}   ; [] |2565| 
;* --------------------------------------------------------------------------*
;*   BEGIN LOOP ||$C$L44||
;*
;*   Loop source line                : 2565
;*   Loop closing brace source line  : 2645
;*   Known Minimum Trip Count        : 1
;*   Known Maximum Trip Count        : 4294967295
;*   Known Max Trip Count Factor     : 1
;* --------------------------------------------------------------------------*
	.align	8
||$C$L44||:    
	.dwpsn	file "../utils/ff.c",line 2567,column 3,is_stmt,isa 1
        LDR       V3, [V4, #8]          ; [DPU_3_PIPE] |2567| 
        UBFX      V2, V3, #0, #9        ; [DPU_3_PIPE] |2567| 
        CMP       V2, #0                ; [DPU_3_PIPE] |2567| 
        BNE       ||$C$L78||            ; [DPU_3_PIPE] |2567| 
        ; BRANCHCC OCCURS {||$C$L78||}   ; [] |2567| 
;* --------------------------------------------------------------------------*
	.dwpsn	file "../utils/ff.c",line 2568,column 4,is_stmt,isa 1
        LDR       V5, [V4, #0]          ; [DPU_3_PIPE] |2568| 
        LDRB      A1, [V5, #2]          ; [DPU_3_PIPE] |2568| 
        ADDS      A1, A1, #255          ; [DPU_3_PIPE] |2568| 
        AND       A1, A1, V3, LSR #9    ; [DPU_3_PIPE] |2568| 
        UXTB      V6, A1                ; [DPU_3_PIPE] |2568| 
	.dwpsn	file "../utils/ff.c",line 2569,column 4,is_stmt,isa 1
        CMP       V6, #0                ; [DPU_3_PIPE] |2569| 
        BNE       ||$C$L68||            ; [DPU_3_PIPE] |2569| 
        ; BRANCHCC OCCURS {||$C$L68||}   ; [] |2569| 
;* --------------------------------------------------------------------------*
	.dwpsn	file "../utils/ff.c",line 2570,column 5,is_stmt,isa 1
        CMP       V3, #0                ; [DPU_3_PIPE] |2570| 
        BNE       ||$C$L54||            ; [DPU_3_PIPE] |2570| 
        ; BRANCHCC OCCURS {||$C$L54||}   ; [] |2570| 
;* --------------------------------------------------------------------------*
	.dwpsn	file "../utils/ff.c",line 2571,column 6,is_stmt,isa 1
        LDR       A1, [V4, #16]         ; [DPU_3_PIPE] |2571| 
        CMP       A1, #0                ; [DPU_3_PIPE] |2571| 
        BNE       ||$C$L65||            ; [DPU_3_PIPE] |2571| 
        ; BRANCHCC OCCURS {||$C$L65||}   ; [] |2571| 
;* --------------------------------------------------------------------------*
	.dwpsn	file "../utils/ff.c",line 1011,column 3,is_stmt,isa 1
        LDR       V2, [V5, #12]         ; [DPU_3_PIPE] |1011| 
        CBZ       V2, ||$C$L45||        ; [] 
        ; BRANCHCC OCCURS {||$C$L45||}   ; [] |1011| 
;* --------------------------------------------------------------------------*
	.dwpsn	file "../utils/ff.c",line 1012,column 3,is_stmt,isa 1
        LDR       A1, [V5, #24]         ; [DPU_3_PIPE] |1012| 
        CMP       A1, V2                ; [DPU_3_PIPE] |1012| 
        BHI       ||$C$L46||            ; [DPU_3_PIPE] |1012| 
        ; BRANCHCC OCCURS {||$C$L46||}   ; [] |1012| 
;* --------------------------------------------------------------------------*
||$C$L45||:    
	.dwpsn	file "../utils/ff.c",line 1043,column 4,is_stmt,isa 1
        MOVS      V2, #1                ; [DPU_3_PIPE] |1043| 
;* --------------------------------------------------------------------------*
||$C$L46||:    
	.dwpsn	file "../utils/ff.c",line 1021,column 2,is_stmt,isa 1
        MOV       V3, V2                ; [DPU_3_PIPE] |1021| 
;* --------------------------------------------------------------------------*
;*   BEGIN LOOP ||$C$L47||
;*
;*   Loop source line                : 1022
;*   Loop closing brace source line  : 1033
;*   Known Minimum Trip Count        : 1
;*   Known Maximum Trip Count        : 4294967295
;*   Known Max Trip Count Factor     : 1
;* --------------------------------------------------------------------------*
	.align	8
||$C$L47||:    
	.dwpsn	file "../utils/ff.c",line 1024,column 3,is_stmt,isa 1
        LDR       A1, [V5, #24]         ; [DPU_3_PIPE] |1024| 
        ADDS      V3, V3, #1            ; [DPU_3_PIPE] |1024| 
        CMP       A1, V3                ; [DPU_3_PIPE] |1024| 
        BHI       ||$C$L48||            ; [DPU_3_PIPE] |1024| 
        ; BRANCHCC OCCURS {||$C$L48||}   ; [] |1024| 
;* --------------------------------------------------------------------------*
	.dwpsn	file "../utils/ff.c",line 1026,column 4,is_stmt,isa 1
        CMP       V2, #2                ; [DPU_3_PIPE] |1026| 
        BCC       ||$C$L53||            ; [DPU_3_PIPE] |1026| 
        ; BRANCHCC OCCURS {||$C$L53||}   ; [] |1026| 
;* --------------------------------------------------------------------------*
	.dwpsn	file "../utils/ff.c",line 1025,column 4,is_stmt,isa 1
        MOVS      V3, #2                ; [DPU_3_PIPE] |1025| 
;* --------------------------------------------------------------------------*
||$C$L48||:    
	.dwpsn	file "../utils/ff.c",line 1028,column 3,is_stmt,isa 1
        MOV       A1, V5                ; [DPU_3_PIPE] |1028| 
        MOV       A2, V3                ; [DPU_3_PIPE] |1028| 
$C$DW$134	.dwtag  DW_TAG_TI_branch
	.dwattr $C$DW$134, DW_AT_low_pc(0x00)
	.dwattr $C$DW$134, DW_AT_name("get_fat")
	.dwattr $C$DW$134, DW_AT_TI_call
        BL        get_fat               ; [DPU_3_PIPE] |1028| 
        ; CALL OCCURS {get_fat }         ; [] |1028| 
        CBNZ      A1, ||$C$L51||        ; [] 
        ; BRANCHCC OCCURS {||$C$L51||}   ; [] |1028| 
;* --------------------------------------------------------------------------*
	.dwpsn	file "../utils/ff.c",line 1035,column 2,is_stmt,isa 1
        MOV       A1, V5                ; [DPU_3_PIPE] |1035| 
        MOV       A2, V3                ; [DPU_3_PIPE] |1035| 
        MVN       A3, #-268435456       ; [DPU_3_PIPE] |1035| 
$C$DW$135	.dwtag  DW_TAG_TI_branch
	.dwattr $C$DW$135, DW_AT_low_pc(0x00)
	.dwattr $C$DW$135, DW_AT_name("put_fat")
	.dwattr $C$DW$135, DW_AT_TI_call
        BL        put_fat               ; [DPU_3_PIPE] |1035| 
        ; CALL OCCURS {put_fat }         ; [] |1035| 
        CBNZ      A1, ||$C$L49||        ; [] 
        ; BRANCHCC OCCURS {||$C$L49||}   ; [] |1035| 
;* --------------------------------------------------------------------------*
	.dwpsn	file "../utils/ff.c",line 1040,column 3,is_stmt,isa 1
        STR       V3, [V5, #12]         ; [DPU_3_PIPE] |1040| 
	.dwpsn	file "../utils/ff.c",line 1041,column 3,is_stmt,isa 1
        LDR       A1, [V5, #16]         ; [DPU_3_PIPE] |1041| 
        CMP       A1, #-1               ; [DPU_3_PIPE] |1041| 
        BEQ       ||$C$L50||            ; [DPU_3_PIPE] |1041| 
        ; BRANCHCC OCCURS {||$C$L50||}   ; [] |1041| 
;* --------------------------------------------------------------------------*
	.dwpsn	file "../utils/ff.c",line 1043,column 4,is_stmt,isa 1
        MOVS      A2, #1                ; [DPU_3_PIPE] |1043| 
        STRB      A2, [V5, #5]          ; [DPU_3_PIPE] |1043| 
	.dwpsn	file "../utils/ff.c",line 1042,column 4,is_stmt,isa 1
        SUBS      A1, A1, #1            ; [DPU_3_PIPE] |1042| 
        STR       A1, [V5, #16]         ; [DPU_3_PIPE] |1042| 
	.dwpsn	file "../utils/ff.c",line 1043,column 4,is_stmt,isa 1
        B         ||$C$L50||            ; [DPU_3_PIPE] |1043| 
        ; BRANCH OCCURS {||$C$L50||}     ; [] |1043| 
;* --------------------------------------------------------------------------*
	.align	8
||$C$L49||:    
	.dwpsn	file "../utils/ff.c",line 1046,column 3,is_stmt,isa 1
        CMP       A1, #1                ; [DPU_3_PIPE] |1046| 
        ITE       EQ                    ; [DPU_3_PIPE] 
        MOVEQ     V3, #-1               ; [DPU_3_PIPE] |1046| 
	.dwpsn	file "../utils/ff.c",line 1043,column 4,is_stmt,isa 1
        MOVNE     V3, #1                ; [DPU_3_PIPE] |1043| 
;* --------------------------------------------------------------------------*
||$C$L50||:    
	.dwpsn	file "../utils/ff.c",line 1049,column 2,is_stmt,isa 1
        MOV       A1, V3                ; [DPU_3_PIPE] |1049| 
	.dwpsn	file "../utils/ff.c",line 2582,column 20,is_stmt,isa 1
        CMP       A1, #0                ; [DPU_3_PIPE] |2582| 
	.dwpsn	file "../utils/ff.c",line 2573,column 7,is_stmt,isa 1
        STR       A1, [V4, #16]         ; [DPU_3_PIPE] |2573| 
	.dwpsn	file "../utils/ff.c",line 2582,column 20,is_stmt,isa 1
        BNE       ||$C$L65||            ; [DPU_3_PIPE] |2582| 
        ; BRANCHCC OCCURS {||$C$L65||}   ; [] |2582| 
;* --------------------------------------------------------------------------*
        B         ||$C$L83||            ; [DPU_3_PIPE] |2582| 
        ; BRANCH OCCURS {||$C$L83||}     ; [] |2582| 
;* --------------------------------------------------------------------------*
	.align	8
||$C$L51||:    
	.dwpsn	file "../utils/ff.c",line 1030,column 3,is_stmt,isa 1
        CMP       A1, #-1               ; [DPU_3_PIPE] |1030| 
        BEQ       ||$C$L52||            ; [DPU_3_PIPE] |1030| 
        ; BRANCHCC OCCURS {||$C$L52||}   ; [] |1030| 
;* --------------------------------------------------------------------------*
        CMP       A1, #1                ; [DPU_3_PIPE] |1030| 
        BEQ       ||$C$L52||            ; [DPU_3_PIPE] |1030| 
        ; BRANCHCC OCCURS {||$C$L52||}   ; [] |1030| 
;* --------------------------------------------------------------------------*
	.dwpsn	file "../utils/ff.c",line 1032,column 3,is_stmt,isa 1
        CMP       V2, V3                ; [DPU_3_PIPE] |1032| 
        BNE       ||$C$L47||            ; [DPU_3_PIPE] |1032| 
        ; BRANCHCC OCCURS {||$C$L47||}   ; [] |1032| 
;* --------------------------------------------------------------------------*
	.dwpsn	file "../utils/ff.c",line 2555,column 2,is_stmt,isa 1
        MOVS      A1, #0                ; [DPU_3_PIPE] |2555| 
	.dwpsn	file "../utils/ff.c",line 2647,column 2,is_stmt,isa 1
        LDR       A2, [V4, #8]          ; [DPU_3_PIPE] |2647| 
	.dwpsn	file "../utils/ff.c",line 2573,column 7,is_stmt,isa 1
        STR       A1, [V4, #16]         ; [DPU_3_PIPE] |2573| 
	.dwpsn	file "../utils/ff.c",line 2647,column 2,is_stmt,isa 1
        B         ||$C$L84||            ; [DPU_3_PIPE] |2647| 
        ; BRANCH OCCURS {||$C$L84||}     ; [] |2647| 
;* --------------------------------------------------------------------------*
||$C$L52||:    
	.dwpsn	file "../utils/ff.c",line 2573,column 7,is_stmt,isa 1
        STR       A1, [V4, #16]         ; [DPU_3_PIPE] |2573| 
	.dwpsn	file "../utils/ff.c",line 2583,column 5,is_stmt,isa 1
        B         ||$C$L65||            ; [DPU_3_PIPE] |2583| 
        ; BRANCH OCCURS {||$C$L65||}     ; [] |2583| 
;* --------------------------------------------------------------------------*
	.align	8
||$C$L53||:    
	.dwpsn	file "../utils/ff.c",line 2555,column 2,is_stmt,isa 1
        MOVS      A1, #0                ; [DPU_3_PIPE] |2555| 
	.dwpsn	file "../utils/ff.c",line 2647,column 2,is_stmt,isa 1
        LDR       A2, [V4, #8]          ; [DPU_3_PIPE] |2647| 
	.dwpsn	file "../utils/ff.c",line 2573,column 7,is_stmt,isa 1
        STR       A1, [V4, #16]         ; [DPU_3_PIPE] |2573| 
	.dwpsn	file "../utils/ff.c",line 2647,column 2,is_stmt,isa 1
        B         ||$C$L84||            ; [DPU_3_PIPE] |2647| 
        ; BRANCH OCCURS {||$C$L84||}     ; [] |2647| 
;* --------------------------------------------------------------------------*
	.align	8
||$C$L54||:    
	.dwpsn	file "../utils/ff.c",line 2580,column 7,is_stmt,isa 1
        LDR       V7, [V4, #20]         ; [DPU_3_PIPE] |2580| 
        CMP       V7, #0                ; [DPU_3_PIPE] |2580| 
        BNE       ||$C$L56||            ; [DPU_3_PIPE] |2580| 
        ; BRANCHCC OCCURS {||$C$L56||}   ; [] |2580| 
;* --------------------------------------------------------------------------*
	.dwpsn	file "../utils/ff.c",line 1011,column 3,is_stmt,isa 1
        LDR       V2, [V5, #12]         ; [DPU_3_PIPE] |1011| 
        CBZ       V2, ||$C$L55||        ; [] 
        ; BRANCHCC OCCURS {||$C$L55||}   ; [] |1011| 
;* --------------------------------------------------------------------------*
	.dwpsn	file "../utils/ff.c",line 1012,column 3,is_stmt,isa 1
        LDR       A1, [V5, #24]         ; [DPU_3_PIPE] |1012| 
        CMP       A1, V2                ; [DPU_3_PIPE] |1012| 
        BHI       ||$C$L58||            ; [DPU_3_PIPE] |1012| 
        ; BRANCHCC OCCURS {||$C$L58||}   ; [] |1012| 
;* --------------------------------------------------------------------------*
||$C$L55||:    
	.dwpsn	file "../utils/ff.c",line 1043,column 4,is_stmt,isa 1
        MOVS      V2, #1                ; [DPU_3_PIPE] |1043| 
	.dwpsn	file "../utils/ff.c",line 1012,column 36,is_stmt,isa 1
        B         ||$C$L58||            ; [DPU_3_PIPE] |1012| 
        ; BRANCH OCCURS {||$C$L58||}     ; [] |1012| 
;* --------------------------------------------------------------------------*
	.align	8
||$C$L56||:    
	.dwpsn	file "../utils/ff.c",line 1015,column 3,is_stmt,isa 1
        MOV       A1, V5                ; [DPU_3_PIPE] |1015| 
        MOV       A2, V7                ; [DPU_3_PIPE] |1015| 
$C$DW$136	.dwtag  DW_TAG_TI_branch
	.dwattr $C$DW$136, DW_AT_low_pc(0x00)
	.dwattr $C$DW$136, DW_AT_name("get_fat")
	.dwattr $C$DW$136, DW_AT_TI_call
        BL        get_fat               ; [DPU_3_PIPE] |1015| 
        ; CALL OCCURS {get_fat }         ; [] |1015| 
        CMP       A1, #2                ; [DPU_3_PIPE] |1015| 
        BCC       ||$C$L70||            ; [DPU_3_PIPE] |1015| 
        ; BRANCHCC OCCURS {||$C$L70||}   ; [] |1015| 
;* --------------------------------------------------------------------------*
	.dwpsn	file "../utils/ff.c",line 1017,column 3,is_stmt,isa 1
        LDR       A2, [V5, #24]         ; [DPU_3_PIPE] |1017| 
        CMP       A2, A1                ; [DPU_3_PIPE] |1017| 
        BLS       ||$C$L57||            ; [DPU_3_PIPE] |1017| 
        ; BRANCHCC OCCURS {||$C$L57||}   ; [] |1017| 
;* --------------------------------------------------------------------------*
	.dwpsn	file "../utils/ff.c",line 1017,column 26,is_stmt,isa 1
        CMP       A1, #-1               ; [DPU_3_PIPE] |1017| 
        BNE       ||$C$L66||            ; [DPU_3_PIPE] |1017| 
        ; BRANCHCC OCCURS {||$C$L66||}   ; [] |1017| 
;* --------------------------------------------------------------------------*
        B         ||$C$L74||            ; [DPU_3_PIPE] |1017| 
        ; BRANCH OCCURS {||$C$L74||}     ; [] |1017| 
;* --------------------------------------------------------------------------*
||$C$L57||:    
	.dwpsn	file "../utils/ff.c",line 1018,column 3,is_stmt,isa 1
        MOV       V2, V7                ; [DPU_3_PIPE] |1018| 
;* --------------------------------------------------------------------------*
||$C$L58||:    
	.dwpsn	file "../utils/ff.c",line 1021,column 2,is_stmt,isa 1
        MOV       V3, V2                ; [DPU_3_PIPE] |1021| 
;* --------------------------------------------------------------------------*
;*   BEGIN LOOP ||$C$L59||
;*
;*   Loop source line                : 1022
;*   Loop closing brace source line  : 1033
;*   Known Minimum Trip Count        : 1
;*   Known Maximum Trip Count        : 4294967295
;*   Known Max Trip Count Factor     : 1
;* --------------------------------------------------------------------------*
	.align	8
||$C$L59||:    
	.dwpsn	file "../utils/ff.c",line 1024,column 3,is_stmt,isa 1
        LDR       A1, [V5, #24]         ; [DPU_3_PIPE] |1024| 
        ADDS      V3, V3, #1            ; [DPU_3_PIPE] |1024| 
        CMP       A1, V3                ; [DPU_3_PIPE] |1024| 
        BHI       ||$C$L60||            ; [DPU_3_PIPE] |1024| 
        ; BRANCHCC OCCURS {||$C$L60||}   ; [] |1024| 
;* --------------------------------------------------------------------------*
	.dwpsn	file "../utils/ff.c",line 1026,column 4,is_stmt,isa 1
        CMP       V2, #2                ; [DPU_3_PIPE] |1026| 
        BCC       ||$C$L67||            ; [DPU_3_PIPE] |1026| 
        ; BRANCHCC OCCURS {||$C$L67||}   ; [] |1026| 
;* --------------------------------------------------------------------------*
	.dwpsn	file "../utils/ff.c",line 1025,column 4,is_stmt,isa 1
        MOVS      V3, #2                ; [DPU_3_PIPE] |1025| 
;* --------------------------------------------------------------------------*
||$C$L60||:    
	.dwpsn	file "../utils/ff.c",line 1028,column 3,is_stmt,isa 1
        MOV       A1, V5                ; [DPU_3_PIPE] |1028| 
        MOV       A2, V3                ; [DPU_3_PIPE] |1028| 
$C$DW$137	.dwtag  DW_TAG_TI_branch
	.dwattr $C$DW$137, DW_AT_low_pc(0x00)
	.dwattr $C$DW$137, DW_AT_name("get_fat")
	.dwattr $C$DW$137, DW_AT_TI_call
        BL        get_fat               ; [DPU_3_PIPE] |1028| 
        ; CALL OCCURS {get_fat }         ; [] |1028| 
        CBNZ      A1, ||$C$L64||        ; [] 
        ; BRANCHCC OCCURS {||$C$L64||}   ; [] |1028| 
;* --------------------------------------------------------------------------*
	.dwpsn	file "../utils/ff.c",line 1035,column 2,is_stmt,isa 1
        MOV       A1, V5                ; [DPU_3_PIPE] |1035| 
        MOV       A2, V3                ; [DPU_3_PIPE] |1035| 
        MVN       A3, #-268435456       ; [DPU_3_PIPE] |1035| 
$C$DW$138	.dwtag  DW_TAG_TI_branch
	.dwattr $C$DW$138, DW_AT_low_pc(0x00)
	.dwattr $C$DW$138, DW_AT_name("put_fat")
	.dwattr $C$DW$138, DW_AT_TI_call
        BL        put_fat               ; [DPU_3_PIPE] |1035| 
        ; CALL OCCURS {put_fat }         ; [] |1035| 
        CBNZ      A1, ||$C$L62||        ; [] 
        ; BRANCHCC OCCURS {||$C$L62||}   ; [] |1035| 
;* --------------------------------------------------------------------------*
	.dwpsn	file "../utils/ff.c",line 1036,column 2,is_stmt,isa 1
        CMP       V7, #0                ; [DPU_3_PIPE] |1036| 
        BEQ       ||$C$L61||            ; [DPU_3_PIPE] |1036| 
        ; BRANCHCC OCCURS {||$C$L61||}   ; [] |1036| 
;* --------------------------------------------------------------------------*
	.dwpsn	file "../utils/ff.c",line 1037,column 3,is_stmt,isa 1
        MOV       A1, V5                ; [DPU_3_PIPE] |1037| 
        MOV       A2, V7                ; [DPU_3_PIPE] |1037| 
        MOV       A3, V3                ; [DPU_3_PIPE] |1037| 
$C$DW$139	.dwtag  DW_TAG_TI_branch
	.dwattr $C$DW$139, DW_AT_low_pc(0x00)
	.dwattr $C$DW$139, DW_AT_name("put_fat")
	.dwattr $C$DW$139, DW_AT_TI_call
        BL        put_fat               ; [DPU_3_PIPE] |1037| 
        ; CALL OCCURS {put_fat }         ; [] |1037| 
;* --------------------------------------------------------------------------*
||$C$L61||:    
        CBNZ      A1, ||$C$L62||        ; [] 
	.dwpsn	file "../utils/ff.c",line 1039,column 2,is_stmt,isa 1
        ; BRANCHCC OCCURS {||$C$L62||}   ; [] |1039| 
;* --------------------------------------------------------------------------*
	.dwpsn	file "../utils/ff.c",line 1040,column 3,is_stmt,isa 1
        STR       V3, [V5, #12]         ; [DPU_3_PIPE] |1040| 
	.dwpsn	file "../utils/ff.c",line 1041,column 3,is_stmt,isa 1
        LDR       A1, [V5, #16]         ; [DPU_3_PIPE] |1041| 
        CMP       A1, #-1               ; [DPU_3_PIPE] |1041| 
        BEQ       ||$C$L63||            ; [DPU_3_PIPE] |1041| 
        ; BRANCHCC OCCURS {||$C$L63||}   ; [] |1041| 
;* --------------------------------------------------------------------------*
	.dwpsn	file "../utils/ff.c",line 1043,column 4,is_stmt,isa 1
        MOVS      A2, #1                ; [DPU_3_PIPE] |1043| 
        STRB      A2, [V5, #5]          ; [DPU_3_PIPE] |1043| 
	.dwpsn	file "../utils/ff.c",line 1042,column 4,is_stmt,isa 1
        SUBS      A1, A1, #1            ; [DPU_3_PIPE] |1042| 
        STR       A1, [V5, #16]         ; [DPU_3_PIPE] |1042| 
	.dwpsn	file "../utils/ff.c",line 1043,column 4,is_stmt,isa 1
        B         ||$C$L63||            ; [DPU_3_PIPE] |1043| 
        ; BRANCH OCCURS {||$C$L63||}     ; [] |1043| 
;* --------------------------------------------------------------------------*
	.align	8
||$C$L62||:    
	.dwpsn	file "../utils/ff.c",line 1046,column 3,is_stmt,isa 1
        CMP       A1, #1                ; [DPU_3_PIPE] |1046| 
        ITE       EQ                    ; [DPU_3_PIPE] 
        MOVEQ     V3, #-1               ; [DPU_3_PIPE] |1046| 
	.dwpsn	file "../utils/ff.c",line 1043,column 4,is_stmt,isa 1
        MOVNE     V3, #1                ; [DPU_3_PIPE] |1043| 
;* --------------------------------------------------------------------------*
||$C$L63||:    
	.dwpsn	file "../utils/ff.c",line 1049,column 2,is_stmt,isa 1
        MOVS      A1, V3                ; [DPU_3_PIPE] |1049| 
        BNE       ||$C$L65||            ; [DPU_3_PIPE] |1049| 
        ; BRANCHCC OCCURS {||$C$L65||}   ; [] |1049| 
;* --------------------------------------------------------------------------*
        B         ||$C$L83||            ; [DPU_3_PIPE] |1049| 
        ; BRANCH OCCURS {||$C$L83||}     ; [] |1049| 
;* --------------------------------------------------------------------------*
	.align	8
||$C$L64||:    
	.dwpsn	file "../utils/ff.c",line 1030,column 3,is_stmt,isa 1
        CMP       A1, #-1               ; [DPU_3_PIPE] |1030| 
        BEQ       ||$C$L65||            ; [DPU_3_PIPE] |1030| 
        ; BRANCHCC OCCURS {||$C$L65||}   ; [] |1030| 
;* --------------------------------------------------------------------------*
        CMP       A1, #1                ; [DPU_3_PIPE] |1030| 
        BEQ       ||$C$L65||            ; [DPU_3_PIPE] |1030| 
        ; BRANCHCC OCCURS {||$C$L65||}   ; [] |1030| 
;* --------------------------------------------------------------------------*
	.dwpsn	file "../utils/ff.c",line 1032,column 3,is_stmt,isa 1
        CMP       V2, V3                ; [DPU_3_PIPE] |1032| 
        BNE       ||$C$L59||            ; [DPU_3_PIPE] |1032| 
        ; BRANCHCC OCCURS {||$C$L59||}   ; [] |1032| 
;* --------------------------------------------------------------------------*
	.dwpsn	file "../utils/ff.c",line 2647,column 2,is_stmt,isa 1
        LDR       A2, [V4, #8]          ; [DPU_3_PIPE] |2647| 
        B         ||$C$L84||            ; [DPU_3_PIPE] |2647| 
        ; BRANCH OCCURS {||$C$L84||}     ; [] |2647| 
;* --------------------------------------------------------------------------*
	.align	8
||$C$L65||:    
	.dwpsn	file "../utils/ff.c",line 2583,column 5,is_stmt,isa 1
        CMP       A1, #1                ; [DPU_3_PIPE] |2583| 
        BEQ       ||$C$L70||            ; [DPU_3_PIPE] |2583| 
        ; BRANCHCC OCCURS {||$C$L70||}   ; [] |2583| 
;* --------------------------------------------------------------------------*
	.dwpsn	file "../utils/ff.c",line 2584,column 5,is_stmt,isa 1
        CMP       A1, #-1               ; [DPU_3_PIPE] |2584| 
        BEQ       ||$C$L74||            ; [DPU_3_PIPE] |2584| 
        ; BRANCHCC OCCURS {||$C$L74||}   ; [] |2584| 
;* --------------------------------------------------------------------------*
||$C$L66||:    
        LDR       V5, [V4, #0]          ; [DPU_3_PIPE] 
	.dwpsn	file "../utils/ff.c",line 2585,column 5,is_stmt,isa 1
        STR       A1, [V4, #20]         ; [DPU_3_PIPE] |2585| 
	.dwpsn	file "../utils/ff.c",line 2591,column 4,is_stmt,isa 1
        B         ||$C$L68||            ; [DPU_3_PIPE] |2591| 
        ; BRANCH OCCURS {||$C$L68||}     ; [] |2591| 
;* --------------------------------------------------------------------------*
||$C$L67||:    
	.dwpsn	file "../utils/ff.c",line 2647,column 2,is_stmt,isa 1
        LDR       A2, [V4, #8]          ; [DPU_3_PIPE] |2647| 
        B         ||$C$L84||            ; [DPU_3_PIPE] |2647| 
        ; BRANCH OCCURS {||$C$L84||}     ; [] |2647| 
;* --------------------------------------------------------------------------*
	.align	8
||$C$L68||:    
	.dwpsn	file "../utils/ff.c",line 2591,column 4,is_stmt,isa 1
        LDRB      A1, [V4, #6]          ; [DPU_3_PIPE] |2591| 
        LSRS      A1, A1, #7            ; [DPU_3_PIPE] |2591| 
        BCC       ||$C$L69||            ; [DPU_3_PIPE] |2591| 
        ; BRANCHCC OCCURS {||$C$L69||}   ; [] |2591| 
;* --------------------------------------------------------------------------*
	.dwpsn	file "../utils/ff.c",line 2592,column 5,is_stmt,isa 1
        LDRB      A1, [V5, #1]          ; [DPU_3_PIPE] |2592| 
        LDR       A3, [V4, #24]         ; [DPU_3_PIPE] |2592| 
        ADD       A2, V4, #36           ; [DPU_3_PIPE] |2592| 
	.dwpsn	file "../utils/ff.c",line 1043,column 4,is_stmt,isa 1
        MOVS      A4, #1                ; [DPU_3_PIPE] |1043| 
	.dwpsn	file "../utils/ff.c",line 2592,column 5,is_stmt,isa 1
$C$DW$140	.dwtag  DW_TAG_TI_branch
	.dwattr $C$DW$140, DW_AT_low_pc(0x00)
	.dwattr $C$DW$140, DW_AT_name("disk_write")
	.dwattr $C$DW$140, DW_AT_TI_call
        BL        disk_write            ; [DPU_3_PIPE] |2592| 
        ; CALL OCCURS {disk_write }      ; [] |2592| 
        CMP       A1, #0                ; [DPU_3_PIPE] |2592| 
        BNE       ||$C$L74||            ; [DPU_3_PIPE] |2592| 
        ; BRANCHCC OCCURS {||$C$L74||}   ; [] |2592| 
;* --------------------------------------------------------------------------*
	.dwpsn	file "../utils/ff.c",line 2594,column 5,is_stmt,isa 1
        LDRB      A1, [V4, #6]          ; [DPU_3_PIPE] |2594| 
        LDR       V5, [V4, #0]          ; [DPU_3_PIPE] 
        AND       A1, A1, #191          ; [DPU_3_PIPE] |2594| 
        STRB      A1, [V4, #6]          ; [DPU_3_PIPE] |2594| 
;* --------------------------------------------------------------------------*
||$C$L69||:    
	.dwpsn	file "../utils/ff.c",line 830,column 2,is_stmt,isa 1
        LDR       A1, [V4, #20]         ; [DPU_3_PIPE] |830| 
        LDR       A2, [V5, #24]         ; [DPU_3_PIPE] |830| 
        SUBS      A1, A1, #2            ; [DPU_3_PIPE] |830| 
        SUBS      A2, A2, #2            ; [DPU_3_PIPE] |830| 
        CMP       A2, A1                ; [DPU_3_PIPE] |830| 
        BLS       ||$C$L70||            ; [DPU_3_PIPE] |830| 
        ; BRANCHCC OCCURS {||$C$L70||}   ; [] |830| 
;* --------------------------------------------------------------------------*
	.dwpsn	file "../utils/ff.c",line 831,column 2,is_stmt,isa 1
        LDRB      V9, [V5, #2]          ; [DPU_3_PIPE] |831| 
        LDR       A2, [V5, #44]         ; [DPU_3_PIPE] |831| 
	.dwpsn	file "../utils/ff.c",line 2598,column 4,is_stmt,isa 1
        MLA       V3, A1, V9, A2        ; [DPU_3_PIPE] |2598| 
	.dwpsn	file "../utils/ff.c",line 831,column 2,is_stmt,isa 1
        MLA       V7, A1, V9, A2        ; [DPU_3_PIPE] |831| 
        CBNZ      V3, ||$C$L71||        ; [] 
	.dwpsn	file "../utils/ff.c",line 2598,column 4,is_stmt,isa 1
        ; BRANCHCC OCCURS {||$C$L71||}   ; [] |2598| 
;* --------------------------------------------------------------------------*
||$C$L70||:    
	.dwcfi	remember_state
	.dwpsn	file "../utils/ff.c",line 2598,column 15,is_stmt,isa 1
        LDRB      A2, [V4, #6]          ; [DPU_3_PIPE] |2598| 
        MOVS      A1, #2                ; [DPU_3_PIPE] |2598| 
        ORR       A2, A2, #128          ; [DPU_3_PIPE] |2598| 
        STRB      A2, [V4, #6]          ; [DPU_3_PIPE] |2598| 
$C$DW$141	.dwtag  DW_TAG_TI_branch
	.dwattr $C$DW$141, DW_AT_low_pc(0x00)
	.dwattr $C$DW$141, DW_AT_TI_return
        POP       {A4, V1, V2, V3, V4, V5, V6, V7, V8, PC} ; [DPU_3_PIPE] 
	.dwcfi	cfa_offset, 0
        ; BRANCH OCCURS                  ; [] 
	.dwcfi	restore_reg, 11
	.dwcfi	restore_reg, 10
	.dwcfi	restore_reg, 9
	.dwcfi	restore_reg, 8
	.dwcfi	restore_reg, 7
	.dwcfi	restore_reg, 6
	.dwcfi	restore_reg, 5
	.dwcfi	restore_reg, 4
	.dwcfi	restore_reg, 3
	.dwcfi	restore_state
;* --------------------------------------------------------------------------*
	.align	8
||$C$L71||:    
	.dwpsn	file "../utils/ff.c",line 2600,column 4,is_stmt,isa 1
        LSRS      V3, V1, #9            ; [DPU_3_PIPE] |2600| 
	.dwpsn	file "../utils/ff.c",line 2599,column 4,is_stmt,isa 1
        ADD       V7, V6, V7            ; [DPU_3_PIPE] |2599| 
	.dwpsn	file "../utils/ff.c",line 2600,column 4,is_stmt,isa 1
        BNE       ||$C$L73||            ; [DPU_3_PIPE] |2600| 
        ; BRANCHCC OCCURS {||$C$L73||}   ; [] |2600| 
;* --------------------------------------------------------------------------*
	.dwpsn	file "../utils/ff.c",line 2626,column 4,is_stmt,isa 1
        LDR       A1, [V4, #24]         ; [DPU_3_PIPE] |2626| 
        CMP       V7, A1                ; [DPU_3_PIPE] |2626| 
        BEQ       ||$C$L72||            ; [DPU_3_PIPE] |2626| 
        ; BRANCHCC OCCURS {||$C$L72||}   ; [] |2626| 
;* --------------------------------------------------------------------------*
	.dwpsn	file "../utils/ff.c",line 2627,column 5,is_stmt,isa 1
        LDR       A1, [V4, #12]         ; [DPU_3_PIPE] |2627| 
        LDR       A2, [V4, #8]          ; [DPU_3_PIPE] |2627| 
        CMP       A1, A2                ; [DPU_3_PIPE] |2627| 
        BLS       ||$C$L72||            ; [DPU_3_PIPE] |2627| 
        ; BRANCHCC OCCURS {||$C$L72||}   ; [] |2627| 
;* --------------------------------------------------------------------------*
        LDRB      A1, [V5, #1]          ; [DPU_3_PIPE] |2627| 
        ADD       A2, V4, #36           ; [DPU_3_PIPE] |2627| 
        MOV       A3, V7                ; [DPU_3_PIPE] |2627| 
	.dwpsn	file "../utils/ff.c",line 1043,column 4,is_stmt,isa 1
        MOVS      A4, #1                ; [DPU_3_PIPE] |1043| 
	.dwpsn	file "../utils/ff.c",line 2627,column 5,is_stmt,isa 1
$C$DW$142	.dwtag  DW_TAG_TI_branch
	.dwattr $C$DW$142, DW_AT_low_pc(0x00)
	.dwattr $C$DW$142, DW_AT_name("disk_read")
	.dwattr $C$DW$142, DW_AT_TI_call
        BL        disk_read             ; [DPU_3_PIPE] |2627| 
        ; CALL OCCURS {disk_read }       ; [] |2627| 
        CBNZ      A1, ||$C$L74||        ; [] 
        ; BRANCHCC OCCURS {||$C$L74||}   ; [] |2627| 
;* --------------------------------------------------------------------------*
||$C$L72||:    
        LDR       V3, [V4, #8]          ; [DPU_3_PIPE] 
	.dwpsn	file "../utils/ff.c",line 2632,column 4,is_stmt,isa 1
        STR       V7, [V4, #24]         ; [DPU_3_PIPE] |2632| 
        UBFX      V2, V3, #0, #9        ; [DPU_3_PIPE] 
        B         ||$C$L78||            ; [DPU_3_PIPE] |2632| 
        ; BRANCH OCCURS {||$C$L78||}     ; [] |2632| 
;* --------------------------------------------------------------------------*
	.align	8
||$C$L73||:    
	.dwpsn	file "../utils/ff.c",line 2602,column 5,is_stmt,isa 1
        ADD       A1, V3, V6            ; [DPU_3_PIPE] |2602| 
        CMP       V9, A1                ; [DPU_3_PIPE] |2602| 
        IT        CC                    ; [DPU_3_PIPE] 
	.dwpsn	file "../utils/ff.c",line 2603,column 6,is_stmt,isa 1
        SUBCC     V3, V9, V6            ; [DPU_3_PIPE] |2603| 
	.dwpsn	file "../utils/ff.c",line 2604,column 5,is_stmt,isa 1
        LDRB      A1, [V5, #1]          ; [DPU_3_PIPE] |2604| 
        MOV       A2, V8                ; [DPU_3_PIPE] |2604| 
        MOV       A3, V7                ; [DPU_3_PIPE] |2604| 
        UXTB      A4, V3                ; [DPU_3_PIPE] |2604| 
$C$DW$143	.dwtag  DW_TAG_TI_branch
	.dwattr $C$DW$143, DW_AT_low_pc(0x00)
	.dwattr $C$DW$143, DW_AT_name("disk_write")
	.dwattr $C$DW$143, DW_AT_TI_call
        BL        disk_write            ; [DPU_3_PIPE] |2604| 
        ; CALL OCCURS {disk_write }      ; [] |2604| 
        CBZ       A1, ||$C$L75||        ; [] 
        ; BRANCHCC OCCURS {||$C$L75||}   ; [] |2604| 
;* --------------------------------------------------------------------------*
||$C$L74||:    
	.dwcfi	remember_state
	.dwpsn	file "../utils/ff.c",line 2605,column 6,is_stmt,isa 1
        LDRB      A2, [V4, #6]          ; [DPU_3_PIPE] |2605| 
	.dwpsn	file "../utils/ff.c",line 1043,column 4,is_stmt,isa 1
        MOVS      A1, #1                ; [DPU_3_PIPE] |1043| 
	.dwpsn	file "../utils/ff.c",line 2605,column 6,is_stmt,isa 1
        ORR       A2, A2, #128          ; [DPU_3_PIPE] |2605| 
        STRB      A2, [V4, #6]          ; [DPU_3_PIPE] |2605| 
$C$DW$144	.dwtag  DW_TAG_TI_branch
	.dwattr $C$DW$144, DW_AT_low_pc(0x00)
	.dwattr $C$DW$144, DW_AT_TI_return
        POP       {A4, V1, V2, V3, V4, V5, V6, V7, V8, PC} ; [DPU_3_PIPE] 
	.dwcfi	cfa_offset, 0
        ; BRANCH OCCURS                  ; [] 
	.dwcfi	restore_reg, 11
	.dwcfi	restore_reg, 10
	.dwcfi	restore_reg, 9
	.dwcfi	restore_reg, 8
	.dwcfi	restore_reg, 7
	.dwcfi	restore_reg, 6
	.dwcfi	restore_reg, 5
	.dwcfi	restore_reg, 4
	.dwcfi	restore_reg, 3
	.dwcfi	restore_state
;* --------------------------------------------------------------------------*
	.align	8
||$C$L75||:    
	.dwpsn	file "../utils/ff.c",line 2612,column 5,is_stmt,isa 1
        LDR       A1, [V4, #24]         ; [DPU_3_PIPE] |2612| 
        SUB       A1, A1, V7            ; [DPU_3_PIPE] |2612| 
        CMP       V3, A1                ; [DPU_3_PIPE] |2612| 
        BLS       ||$C$L77||            ; [DPU_3_PIPE] |2612| 
        ; BRANCHCC OCCURS {||$C$L77||}   ; [] |2612| 
;* --------------------------------------------------------------------------*
	.dwpsn	file "../utils/ff.c",line 541,column 16,is_stmt,isa 1
        ADD       A2, V8, A1, LSL #9    ; [DPU_3_PIPE] |541| 
	.dwpsn	file "../utils/ff.c",line 540,column 10,is_stmt,isa 1
        ADD       A3, V4, #34           ; [DPU_3_PIPE] |540| 
	.dwpsn	file "../utils/ff.c",line 2613,column 6,is_stmt,isa 1
        MOV       A1, #512              ; [DPU_3_PIPE] |2613| 
	.dwpsn	file "../utils/ff.c",line 541,column 16,is_stmt,isa 1
        SUBS      A2, A2, #2            ; [DPU_3_PIPE] |541| 
;* --------------------------------------------------------------------------*
;*   BEGIN LOOP ||$C$L76||
;*
;*   Loop source line                : 550
;*   Loop closing brace source line  : 551
;*   Loop Unroll Multiple            : 2x
;*   Known Minimum Trip Count        : 256
;*   Known Maximum Trip Count        : 256
;*   Known Max Trip Count Factor     : 256
;* --------------------------------------------------------------------------*
	.align	8
||$C$L76||:    
	.dwpsn	file "../utils/ff.c",line 551,column 3,is_stmt,isa 1
        LDRB      A4, [A2, #2]!         ; [DPU_3_PIPE] |551| 
        STRB      A4, [A3, #2]!         ; [DPU_3_PIPE] |551| 
        LDRB      A4, [A2, #1]          ; [DPU_3_PIPE] |551| 
	.dwpsn	file "../utils/ff.c",line 550,column 2,is_stmt,isa 1
        SUBS      A1, A1, #2            ; [DPU_3_PIPE] |550| 
	.dwpsn	file "../utils/ff.c",line 551,column 3,is_stmt,isa 1
        STRB      A4, [A3, #1]          ; [DPU_3_PIPE] |551| 
	.dwpsn	file "../utils/ff.c",line 550,column 2,is_stmt,isa 1
        BNE       ||$C$L76||            ; [DPU_3_PIPE] |550| 
        ; BRANCHCC OCCURS {||$C$L76||}   ; [] |550| 
;* --------------------------------------------------------------------------*
	.dwpsn	file "../utils/ff.c",line 2614,column 6,is_stmt,isa 1
        LDRB      A1, [V4, #6]          ; [DPU_3_PIPE] |2614| 
        AND       A1, A1, #191          ; [DPU_3_PIPE] |2614| 
        STRB      A1, [V4, #6]          ; [DPU_3_PIPE] |2614| 
;* --------------------------------------------------------------------------*
||$C$L77||:    
	.dwpsn	file "../utils/ff.c",line 2617,column 5,is_stmt,isa 1
        LSLS      V2, V3, #9            ; [DPU_3_PIPE] |2617| 
	.dwpsn	file "../utils/ff.c",line 2618,column 5,is_stmt,isa 1
        B         ||$C$L82||            ; [DPU_3_PIPE] |2618| 
        ; BRANCH OCCURS {||$C$L82||}     ; [] |2618| 
;* --------------------------------------------------------------------------*
	.align	8
||$C$L78||:    
	.dwpsn	file "../utils/ff.c",line 2634,column 3,is_stmt,isa 1
        RSB       V2, V2, #512          ; [DPU_3_PIPE] |2634| 
	.dwpsn	file "../utils/ff.c",line 2635,column 3,is_stmt,isa 1
        CMP       V1, V2                ; [DPU_3_PIPE] |2635| 
        IT        CC                    ; [DPU_3_PIPE] 
	.dwpsn	file "../utils/ff.c",line 2635,column 19,is_stmt,isa 1
        MOVCC     V2, V1                ; [DPU_3_PIPE] |2635| 
	.dwpsn	file "../utils/ff.c",line 540,column 10,is_stmt,isa 1
        UBFX      A1, V3, #0, #9        ; [DPU_3_PIPE] |540| 
	.dwpsn	file "../utils/ff.c",line 541,column 16,is_stmt,isa 1
        MOV       A2, V8                ; [DPU_3_PIPE] |541| 
	.dwpsn	file "../utils/ff.c",line 540,column 10,is_stmt,isa 1
        ADD       V9, V4, A1            ; [DPU_3_PIPE] |540| 
        ADD       V9, V9, #36           ; [DPU_3_PIPE] |540| 
        CBZ       V2, ||$C$L81||        ; [] 
	.dwpsn	file "../utils/ff.c",line 550,column 2,is_stmt,isa 1
        ; BRANCHCC OCCURS {||$C$L81||}   ; [] |550| 
;* --------------------------------------------------------------------------*
        LSRS      A1, V2, #1            ; [DPU_3_PIPE] |550| 
        BEQ       ||$C$L80||            ; [DPU_3_PIPE] |550| 
        ; BRANCHCC OCCURS {||$C$L80||}   ; [] |550| 
;* --------------------------------------------------------------------------*
        SUBS      A2, A2, #2            ; [DPU_3_PIPE] 
        SUB       V9, V9, #2            ; [DPU_3_PIPE] 
;* --------------------------------------------------------------------------*
;*   BEGIN LOOP ||$C$L79||
;*
;*   Loop source line                : 550
;*   Loop closing brace source line  : 551
;*   Loop Unroll Multiple            : 2x
;*   Known Minimum Trip Count        : 1
;*   Known Maximum Trip Count        : 2147483647
;*   Known Max Trip Count Factor     : 1
;* --------------------------------------------------------------------------*
	.align	8
||$C$L79||:    
	.dwpsn	file "../utils/ff.c",line 551,column 3,is_stmt,isa 1
        LDRB      A3, [A2, #2]!         ; [DPU_3_PIPE] |551| 
        STRB      A3, [V9, #2]!         ; [DPU_3_PIPE] |551| 
        LDRB      A3, [A2, #1]          ; [DPU_3_PIPE] |551| 
	.dwpsn	file "../utils/ff.c",line 550,column 2,is_stmt,isa 1
        SUBS      A1, A1, #1            ; [DPU_3_PIPE] |550| 
	.dwpsn	file "../utils/ff.c",line 551,column 3,is_stmt,isa 1
        STRB      A3, [V9, #1]          ; [DPU_3_PIPE] |551| 
	.dwpsn	file "../utils/ff.c",line 550,column 2,is_stmt,isa 1
        BNE       ||$C$L79||            ; [DPU_3_PIPE] |550| 
        ; BRANCHCC OCCURS {||$C$L79||}   ; [] |550| 
;* --------------------------------------------------------------------------*
        ADD       V9, V9, #2            ; [DPU_3_PIPE] 
        ADDS      A2, A2, #2            ; [DPU_3_PIPE] 
;* --------------------------------------------------------------------------*
||$C$L80||:    
; Peeled loop iterations for unrolled loop:
        LSRS      A1, V2, #1            ; [DPU_3_PIPE] 
        ITT       CS                    ; [DPU_3_PIPE] 
	.dwpsn	file "../utils/ff.c",line 551,column 3,is_stmt,isa 1
        LDRBCS    A1, [A2, #0]          ; [DPU_3_PIPE] |551| 
        STRBCS    A1, [V9, #0]          ; [DPU_3_PIPE] |551| 
;* --------------------------------------------------------------------------*
||$C$L81||:    
	.dwpsn	file "../utils/ff.c",line 2643,column 3,is_stmt,isa 1
        LDRB      A1, [V4, #6]          ; [DPU_3_PIPE] |2643| 
        ORR       A1, A1, #64           ; [DPU_3_PIPE] |2643| 
        STRB      A1, [V4, #6]          ; [DPU_3_PIPE] |2643| 
;* --------------------------------------------------------------------------*
||$C$L82||:    
	.dwpsn	file "../utils/ff.c",line 2566,column 3,is_stmt,isa 1
        LDR       A1, [V4, #8]          ; [DPU_3_PIPE] |2566| 
        LDR       LR, [SP, #0]          ; [DPU_3_PIPE] |2566| 
        ADDS      A1, V2, A1            ; [DPU_3_PIPE] |2566| 
        STR       A1, [V4, #8]          ; [DPU_3_PIPE] |2566| 
        LDR       A2, [LR, #0]          ; [DPU_3_PIPE] |2566| 
        SUBS      V1, V1, V2            ; [DPU_3_PIPE] |2566| 
        ADD       V8, V2, V8            ; [DPU_3_PIPE] |2566| 
        ADD       A2, V2, A2            ; [DPU_3_PIPE] |2566| 
        STR       A2, [LR, #0]          ; [DPU_3_PIPE] |2566| 
        BNE       ||$C$L44||            ; [DPU_3_PIPE] |2566| 
        ; BRANCHCC OCCURS {||$C$L44||}   ; [] |2566| 
;* --------------------------------------------------------------------------*
||$C$L83||:    
	.dwpsn	file "../utils/ff.c",line 2647,column 2,is_stmt,isa 1
        LDR       A2, [V4, #8]          ; [DPU_3_PIPE] |2647| 
;* --------------------------------------------------------------------------*
||$C$L84||:    
        LDR       A1, [V4, #12]         ; [DPU_3_PIPE] |2647| 
        CMP       A1, A2                ; [DPU_3_PIPE] |2647| 
        BCC       ||$C$L86||            ; [DPU_3_PIPE] |2647| 
        ; BRANCHCC OCCURS {||$C$L86||}   ; [] |2647| 
;* --------------------------------------------------------------------------*
        B         ||$C$L87||            ; [DPU_3_PIPE] |2647| 
        ; BRANCH OCCURS {||$C$L87||}     ; [] |2647| 
;* --------------------------------------------------------------------------*
	.align	8
||$C$L85||:    
        LDR       A2, [V4, #8]          ; [DPU_3_PIPE] |2647| 
        CMP       A1, A2                ; [DPU_3_PIPE] |2647| 
        BCS       ||$C$L87||            ; [DPU_3_PIPE] |2647| 
        ; BRANCHCC OCCURS {||$C$L87||}   ; [] |2647| 
;* --------------------------------------------------------------------------*
||$C$L86||:    
	.dwpsn	file "../utils/ff.c",line 2647,column 28,is_stmt,isa 1
        STR       A2, [V4, #12]         ; [DPU_3_PIPE] |2647| 
;* --------------------------------------------------------------------------*
||$C$L87||:    
	.dwpsn	file "../utils/ff.c",line 2648,column 2,is_stmt,isa 1
        LDRB      A2, [V4, #6]          ; [DPU_3_PIPE] |2648| 
	.dwpsn	file "../utils/ff.c",line 2555,column 2,is_stmt,isa 1
        MOVS      A1, #0                ; [DPU_3_PIPE] |2555| 
	.dwpsn	file "../utils/ff.c",line 2648,column 2,is_stmt,isa 1
        ORR       A2, A2, #32           ; [DPU_3_PIPE] |2648| 
        STRB      A2, [V4, #6]          ; [DPU_3_PIPE] |2648| 
;* --------------------------------------------------------------------------*
||$C$L88||:    
$C$DW$145	.dwtag  DW_TAG_TI_branch
	.dwattr $C$DW$145, DW_AT_low_pc(0x00)
	.dwattr $C$DW$145, DW_AT_TI_return
        POP       {A4, V1, V2, V3, V4, V5, V6, V7, V8, PC} ; [DPU_3_PIPE] 
	.dwcfi	cfa_offset, 0
        ; BRANCH OCCURS                  ; [] 
	.dwattr $C$DW$101, DW_AT_TI_end_file("../utils/ff.c")
	.dwattr $C$DW$101, DW_AT_TI_end_line(0xa5b)
	.dwattr $C$DW$101, DW_AT_TI_end_column(0x01)
	.dwendentry
	.dwendtag $C$DW$101

	.sect	".text"
	.align	8
	.clink
	.thumbfunc check_fs
	.thumb

$C$DW$146	.dwtag  DW_TAG_subprogram, DW_AT_name("check_fs")
	.dwattr $C$DW$146, DW_AT_low_pc(check_fs)
	.dwattr $C$DW$146, DW_AT_high_pc(0x00)
	.dwattr $C$DW$146, DW_AT_TI_symbol_name("check_fs")
	.dwattr $C$DW$146, DW_AT_type(*$C$DW$T$19)
	.dwattr $C$DW$146, DW_AT_TI_begin_file("../utils/ff.c")
	.dwattr $C$DW$146, DW_AT_TI_begin_line(0x7f9)
	.dwattr $C$DW$146, DW_AT_TI_begin_column(0x06)
	.dwattr $C$DW$146, DW_AT_decl_file("../utils/ff.c")
	.dwattr $C$DW$146, DW_AT_decl_line(0x7f9)
	.dwattr $C$DW$146, DW_AT_decl_column(0x06)
	.dwattr $C$DW$146, DW_AT_TI_max_frame_size(0x10)
	.dwpsn	file "../utils/ff.c",line 2045,column 1,is_stmt,address check_fs,isa 1

	.dwfde $C$DW$CIE, check_fs
$C$DW$147	.dwtag  DW_TAG_formal_parameter, DW_AT_name("fs")
	.dwattr $C$DW$147, DW_AT_TI_symbol_name("fs")
	.dwattr $C$DW$147, DW_AT_type(*$C$DW$T$25)
	.dwattr $C$DW$147, DW_AT_location[DW_OP_reg0]
$C$DW$148	.dwtag  DW_TAG_formal_parameter, DW_AT_name("sect")
	.dwattr $C$DW$148, DW_AT_TI_symbol_name("sect")
	.dwattr $C$DW$148, DW_AT_type(*$C$DW$T$21)
	.dwattr $C$DW$148, DW_AT_location[DW_OP_reg1]

;*****************************************************************************
;* FUNCTION NAME: check_fs                                                   *
;*                                                                           *
;*   Regs Modified     : A1,A2,A3,A4,V1,V2,V9,SP,LR,SR,D0,D0_hi,D1,D1_hi,D2, *
;*                           D2_hi,D3,D3_hi,D4,D4_hi,D5,D5_hi,D6,D6_hi,D7,   *
;*                           D7_hi,FPEXC,FPSCR                               *
;*   Regs Used         : A1,A2,A3,A4,V1,V2,V9,SP,LR,SR,D0,D0_hi,D1,D1_hi,D2, *
;*                           D2_hi,D3,D3_hi,D4,D4_hi,D5,D5_hi,D6,D6_hi,D7,   *
;*                           D7_hi,FPEXC,FPSCR                               *
;*   Local Frame Size  : 0 Args + 0 Auto + 12 Save = 12 byte                 *
;*****************************************************************************
check_fs:
;* --------------------------------------------------------------------------*
;* A2    assigned to sect
$C$DW$149	.dwtag  DW_TAG_variable, DW_AT_name("sect")
	.dwattr $C$DW$149, DW_AT_TI_symbol_name("sect")
	.dwattr $C$DW$149, DW_AT_type(*$C$DW$T$208)
	.dwattr $C$DW$149, DW_AT_location[DW_OP_reg1]
;* V2    assigned to fs
$C$DW$150	.dwtag  DW_TAG_variable, DW_AT_name("fs")
	.dwattr $C$DW$150, DW_AT_TI_symbol_name("fs")
	.dwattr $C$DW$150, DW_AT_type(*$C$DW$T$131)
	.dwattr $C$DW$150, DW_AT_location[DW_OP_reg5]
	.dwcfi	cfa_offset, 0
        PUSH      {A4, V1, V2, LR}      ; [DPU_3_PIPE] 
	.dwcfi	cfa_offset, 16
	.dwcfi	save_reg_to_mem, 14, -4
	.dwcfi	save_reg_to_mem, 5, -8
	.dwcfi	save_reg_to_mem, 4, -12
	.dwcfi	save_reg_to_mem, 3, -16
        MOV       V2, A1                ; [DPU_3_PIPE] |2045| 
	.dwpsn	file "../utils/ff.c",line 2046,column 2,is_stmt,isa 1
        LDRB      A1, [V2, #1]          ; [DPU_3_PIPE] |2046| 
        MOV       A3, A2                ; [DPU_3_PIPE] |2046| 
        MOVS      A4, #1                ; [DPU_3_PIPE] |2046| 
        ADD       V1, V2, #52           ; [DPU_3_PIPE] |2046| 
        MOV       A2, V1                ; [DPU_3_PIPE] |2046| 
$C$DW$151	.dwtag  DW_TAG_TI_branch
	.dwattr $C$DW$151, DW_AT_low_pc(0x00)
	.dwattr $C$DW$151, DW_AT_name("disk_read")
	.dwattr $C$DW$151, DW_AT_TI_call
        BL        disk_read             ; [DPU_3_PIPE] |2046| 
        ; CALL OCCURS {disk_read }       ; [] |2046| 
        CMP       A1, #0                ; [DPU_3_PIPE] |2046| 
        IT        NE                    ; [DPU_3_PIPE] 
	.dwpsn	file "../utils/ff.c",line 2047,column 3,is_stmt,isa 1
        MOVNE     A1, #3                ; [DPU_3_PIPE] |2047| 
        BNE       ||$C$L91||            ; [DPU_3_PIPE] |2047| 
        ; BRANCHCC OCCURS {||$C$L91||}   ; [] |2047| 
;* --------------------------------------------------------------------------*
	.dwpsn	file "../utils/ff.c",line 2048,column 2,is_stmt,isa 1
        LDRB      A3, [V2, #563]        ; [DPU_3_PIPE] |2048| 
        LDRB      A1, [V2, #562]        ; [DPU_3_PIPE] |2048| 
        MOV       A2, #43605            ; [DPU_3_PIPE] |2048| 
        ORR       A1, A1, A3, LSL #8    ; [DPU_3_PIPE] |2048| 
        CMP       A2, A1                ; [DPU_3_PIPE] |2048| 
        IT        NE                    ; [DPU_3_PIPE] 
	.dwpsn	file "../utils/ff.c",line 2049,column 3,is_stmt,isa 1
        MOVNE     A1, #2                ; [DPU_3_PIPE] |2049| 
        BNE       ||$C$L91||            ; [DPU_3_PIPE] |2049| 
        ; BRANCHCC OCCURS {||$C$L91||}   ; [] |2049| 
;* --------------------------------------------------------------------------*
	.dwpsn	file "../utils/ff.c",line 2051,column 2,is_stmt,isa 1
        LDRB      A1, [V2, #108]        ; [DPU_3_PIPE] |2051| 
        LDRB      A3, [V2, #107]        ; [DPU_3_PIPE] |2051| 
        LDRB      A2, [V2, #106]        ; [DPU_3_PIPE] |2051| 
        LSLS      A1, A1, #16           ; [DPU_3_PIPE] |2051| 
        ORR       A1, A1, A3, LSL #8    ; [DPU_3_PIPE] |2051| 
        MOVW      A3, #16710            ; [DPU_3_PIPE] |2051| 
        MOVT      A3, #84               ; [DPU_3_PIPE] |2051| 
        ORRS      A2, A2, A1            ; [DPU_3_PIPE] |2051| 
        CMP       A3, A2                ; [DPU_3_PIPE] |2051| 
        BEQ       ||$C$L89||            ; [DPU_3_PIPE] |2051| 
        ; BRANCHCC OCCURS {||$C$L89||}   ; [] |2051| 
;* --------------------------------------------------------------------------*
	.dwpsn	file "../utils/ff.c",line 2053,column 2,is_stmt,isa 1
        LDRB      A1, [V2, #136]        ; [DPU_3_PIPE] |2053| 
        LDRB      A4, [V2, #135]        ; [DPU_3_PIPE] |2053| 
        LDRB      A2, [V2, #134]        ; [DPU_3_PIPE] |2053| 
        LSLS      A1, A1, #16           ; [DPU_3_PIPE] |2053| 
        ORR       A1, A1, A4, LSL #8    ; [DPU_3_PIPE] |2053| 
        ORRS      A2, A2, A1            ; [DPU_3_PIPE] |2053| 
        CMP       A3, A2                ; [DPU_3_PIPE] |2053| 
        BNE       ||$C$L90||            ; [DPU_3_PIPE] |2053| 
        ; BRANCHCC OCCURS {||$C$L90||}   ; [] |2053| 
;* --------------------------------------------------------------------------*
||$C$L89||:    
	.dwcfi	remember_state
	.dwpsn	file "../utils/ff.c",line 2054,column 3,is_stmt,isa 1
        MOVS      A1, #0                ; [DPU_3_PIPE] |2054| 
$C$DW$152	.dwtag  DW_TAG_TI_branch
	.dwattr $C$DW$152, DW_AT_low_pc(0x00)
	.dwattr $C$DW$152, DW_AT_TI_return
        POP       {A4, V1, V2, PC}      ; [DPU_3_PIPE] 
	.dwcfi	cfa_offset, 0
        ; BRANCH OCCURS                  ; [] 
	.dwcfi	restore_reg, 5
	.dwcfi	restore_reg, 4
	.dwcfi	restore_reg, 3
	.dwcfi	restore_state
;* --------------------------------------------------------------------------*
||$C$L90||:    
	.dwpsn	file "../utils/ff.c",line 2056,column 2,is_stmt,isa 1
        MOVS      A1, #1                ; [DPU_3_PIPE] |2056| 
;* --------------------------------------------------------------------------*
||$C$L91||:    
$C$DW$153	.dwtag  DW_TAG_TI_branch
	.dwattr $C$DW$153, DW_AT_low_pc(0x00)
	.dwattr $C$DW$153, DW_AT_TI_return
        POP       {A4, V1, V2, PC}      ; [DPU_3_PIPE] 
	.dwcfi	cfa_offset, 0
        ; BRANCH OCCURS                  ; [] 
	.dwattr $C$DW$146, DW_AT_TI_end_file("../utils/ff.c")
	.dwattr $C$DW$146, DW_AT_TI_end_line(0x809)
	.dwattr $C$DW$146, DW_AT_TI_end_column(0x01)
	.dwendentry
	.dwendtag $C$DW$146

	.sect	".text"
	.align	8
	.clink
	.thumbfunc chk_mounted
	.thumb

$C$DW$154	.dwtag  DW_TAG_subprogram, DW_AT_name("chk_mounted")
	.dwattr $C$DW$154, DW_AT_low_pc(chk_mounted)
	.dwattr $C$DW$154, DW_AT_high_pc(0x00)
	.dwattr $C$DW$154, DW_AT_TI_symbol_name("chk_mounted")
	.dwattr $C$DW$154, DW_AT_type(*$C$DW$T$53)
	.dwattr $C$DW$154, DW_AT_TI_begin_file("../utils/ff.c")
	.dwattr $C$DW$154, DW_AT_TI_begin_line(0x813)
	.dwattr $C$DW$154, DW_AT_TI_begin_column(0x09)
	.dwattr $C$DW$154, DW_AT_decl_file("../utils/ff.c")
	.dwattr $C$DW$154, DW_AT_decl_line(0x813)
	.dwattr $C$DW$154, DW_AT_decl_column(0x09)
	.dwattr $C$DW$154, DW_AT_TI_max_frame_size(0x28)
	.dwpsn	file "../utils/ff.c",line 2072,column 1,is_stmt,address chk_mounted,isa 1

	.dwfde $C$DW$CIE, chk_mounted
$C$DW$155	.dwtag  DW_TAG_formal_parameter, DW_AT_name("path")
	.dwattr $C$DW$155, DW_AT_TI_symbol_name("path")
	.dwattr $C$DW$155, DW_AT_type(*$C$DW$T$66)
	.dwattr $C$DW$155, DW_AT_location[DW_OP_reg0]
$C$DW$156	.dwtag  DW_TAG_formal_parameter, DW_AT_name("rfs")
	.dwattr $C$DW$156, DW_AT_TI_symbol_name("rfs")
	.dwattr $C$DW$156, DW_AT_type(*$C$DW$T$69)
	.dwattr $C$DW$156, DW_AT_location[DW_OP_reg1]
$C$DW$157	.dwtag  DW_TAG_formal_parameter, DW_AT_name("wmode")
	.dwattr $C$DW$157, DW_AT_TI_symbol_name("wmode")
	.dwattr $C$DW$157, DW_AT_type(*$C$DW$T$19)
	.dwattr $C$DW$157, DW_AT_location[DW_OP_reg2]

;*****************************************************************************
;* FUNCTION NAME: chk_mounted                                                *
;*                                                                           *
;*   Regs Modified     : A1,A2,A3,A4,V1,V2,V3,V4,V5,V6,V7,V8,V9,SP,LR,SR,D0, *
;*                           D0_hi,D1,D1_hi,D2,D2_hi,D3,D3_hi,D4,D4_hi,D5,   *
;*                           D5_hi,D6,D6_hi,D7,D7_hi,FPEXC,FPSCR             *
;*   Regs Used         : A1,A2,A3,A4,V1,V2,V3,V4,V5,V6,V7,V8,V9,SP,LR,SR,D0, *
;*                           D0_hi,D1,D1_hi,D2,D2_hi,D3,D3_hi,D4,D4_hi,D5,   *
;*                           D5_hi,D6,D6_hi,D7,D7_hi,FPEXC,FPSCR             *
;*   Local Frame Size  : 0 Args + 0 Auto + 36 Save = 36 byte                 *
;*****************************************************************************
chk_mounted:
;* --------------------------------------------------------------------------*
;* A3    assigned to $O$C1
;* A1    assigned to $O$C2
;* A2    assigned to $O$C3
;* V8    assigned to $O$C4
;* V7    assigned to $O$C5
;* A1    assigned to $O$v2
;* V9    assigned to fmt
$C$DW$158	.dwtag  DW_TAG_variable, DW_AT_name("fmt")
	.dwattr $C$DW$158, DW_AT_TI_symbol_name("fmt")
	.dwattr $C$DW$158, DW_AT_type(*$C$DW$T$10)
	.dwattr $C$DW$158, DW_AT_location[DW_OP_reg12]
;* A1    assigned to fmt
$C$DW$159	.dwtag  DW_TAG_variable, DW_AT_name("fmt")
	.dwattr $C$DW$159, DW_AT_TI_symbol_name("fmt")
	.dwattr $C$DW$159, DW_AT_type(*$C$DW$T$10)
	.dwattr $C$DW$159, DW_AT_location[DW_OP_reg0]
;* V3    assigned to b
$C$DW$160	.dwtag  DW_TAG_variable, DW_AT_name("b")
	.dwattr $C$DW$160, DW_AT_TI_symbol_name("b")
	.dwattr $C$DW$160, DW_AT_type(*$C$DW$T$10)
	.dwattr $C$DW$160, DW_AT_location[DW_OP_reg6]
;* A2    assigned to b
$C$DW$161	.dwtag  DW_TAG_variable, DW_AT_name("b")
	.dwattr $C$DW$161, DW_AT_TI_symbol_name("b")
	.dwattr $C$DW$161, DW_AT_type(*$C$DW$T$10)
	.dwattr $C$DW$161, DW_AT_location[DW_OP_reg1]
;* A1    assigned to stat
$C$DW$162	.dwtag  DW_TAG_variable, DW_AT_name("stat")
	.dwattr $C$DW$162, DW_AT_TI_symbol_name("stat")
	.dwattr $C$DW$162, DW_AT_type(*$C$DW$T$10)
	.dwattr $C$DW$162, DW_AT_location[DW_OP_reg0]
;* A1    assigned to stat
$C$DW$163	.dwtag  DW_TAG_variable, DW_AT_name("stat")
	.dwattr $C$DW$163, DW_AT_TI_symbol_name("stat")
	.dwattr $C$DW$163, DW_AT_type(*$C$DW$T$10)
	.dwattr $C$DW$163, DW_AT_location[DW_OP_reg0]
;* A1    assigned to path
$C$DW$164	.dwtag  DW_TAG_variable, DW_AT_name("path")
	.dwattr $C$DW$164, DW_AT_TI_symbol_name("path")
	.dwattr $C$DW$164, DW_AT_type(*$C$DW$T$215)
	.dwattr $C$DW$164, DW_AT_location[DW_OP_reg0]
;* A2    assigned to rfs
$C$DW$165	.dwtag  DW_TAG_variable, DW_AT_name("rfs")
	.dwattr $C$DW$165, DW_AT_TI_symbol_name("rfs")
	.dwattr $C$DW$165, DW_AT_type(*$C$DW$T$129)
	.dwattr $C$DW$165, DW_AT_location[DW_OP_reg1]
;* V2    assigned to wmode
$C$DW$166	.dwtag  DW_TAG_variable, DW_AT_name("wmode")
	.dwattr $C$DW$166, DW_AT_TI_symbol_name("wmode")
	.dwattr $C$DW$166, DW_AT_type(*$C$DW$T$42)
	.dwattr $C$DW$166, DW_AT_location[DW_OP_reg5]
;* V1    assigned to vol
$C$DW$167	.dwtag  DW_TAG_variable, DW_AT_name("vol")
	.dwattr $C$DW$167, DW_AT_TI_symbol_name("vol")
	.dwattr $C$DW$167, DW_AT_type(*$C$DW$T$61)
	.dwattr $C$DW$167, DW_AT_location[DW_OP_reg4]
;* A3    assigned to bsect
$C$DW$168	.dwtag  DW_TAG_variable, DW_AT_name("bsect")
	.dwattr $C$DW$168, DW_AT_TI_symbol_name("bsect")
	.dwattr $C$DW$168, DW_AT_type(*$C$DW$T$21)
	.dwattr $C$DW$168, DW_AT_location[DW_OP_reg2]
;* A1    assigned to fasize
$C$DW$169	.dwtag  DW_TAG_variable, DW_AT_name("fasize")
	.dwattr $C$DW$169, DW_AT_TI_symbol_name("fasize")
	.dwattr $C$DW$169, DW_AT_type(*$C$DW$T$21)
	.dwattr $C$DW$169, DW_AT_location[DW_OP_reg0]
;* V3    assigned to tsect
$C$DW$170	.dwtag  DW_TAG_variable, DW_AT_name("tsect")
	.dwattr $C$DW$170, DW_AT_TI_symbol_name("tsect")
	.dwattr $C$DW$170, DW_AT_type(*$C$DW$T$21)
	.dwattr $C$DW$170, DW_AT_location[DW_OP_reg6]
;* V9    assigned to sysect
$C$DW$171	.dwtag  DW_TAG_variable, DW_AT_name("sysect")
	.dwattr $C$DW$171, DW_AT_TI_symbol_name("sysect")
	.dwattr $C$DW$171, DW_AT_type(*$C$DW$T$21)
	.dwattr $C$DW$171, DW_AT_location[DW_OP_reg12]
;* V3    assigned to nclst
$C$DW$172	.dwtag  DW_TAG_variable, DW_AT_name("nclst")
	.dwattr $C$DW$172, DW_AT_TI_symbol_name("nclst")
	.dwattr $C$DW$172, DW_AT_type(*$C$DW$T$21)
	.dwattr $C$DW$172, DW_AT_location[DW_OP_reg6]
;* V2    assigned to nrsv
$C$DW$173	.dwtag  DW_TAG_variable, DW_AT_name("nrsv")
	.dwattr $C$DW$173, DW_AT_TI_symbol_name("nrsv")
	.dwattr $C$DW$173, DW_AT_type(*$C$DW$T$10)
	.dwattr $C$DW$173, DW_AT_location[DW_OP_reg5]
;* A4    assigned to p
$C$DW$174	.dwtag  DW_TAG_variable, DW_AT_name("p")
	.dwattr $C$DW$174, DW_AT_TI_symbol_name("p")
	.dwattr $C$DW$174, DW_AT_type(*$C$DW$T$65)
	.dwattr $C$DW$174, DW_AT_location[DW_OP_reg3]
;* V4    assigned to fs
$C$DW$175	.dwtag  DW_TAG_variable, DW_AT_name("fs")
	.dwattr $C$DW$175, DW_AT_TI_symbol_name("fs")
	.dwattr $C$DW$175, DW_AT_type(*$C$DW$T$25)
	.dwattr $C$DW$175, DW_AT_location[DW_OP_reg7]
;* V5    assigned to $O$K278
;* V7    assigned to $O$K31
;* V6    assigned to $O$K57
;* A2    assigned to $O$U184
	.dwcfi	cfa_offset, 0
        PUSH      {A4, V1, V2, V3, V4, V5, V6, V7, V8, LR} ; [DPU_3_PIPE] 
	.dwcfi	cfa_offset, 40
	.dwcfi	save_reg_to_mem, 14, -4
	.dwcfi	save_reg_to_mem, 11, -8
	.dwcfi	save_reg_to_mem, 10, -12
	.dwcfi	save_reg_to_mem, 9, -16
	.dwcfi	save_reg_to_mem, 8, -20
	.dwcfi	save_reg_to_mem, 7, -24
	.dwcfi	save_reg_to_mem, 6, -28
	.dwcfi	save_reg_to_mem, 5, -32
	.dwcfi	save_reg_to_mem, 4, -36
	.dwcfi	save_reg_to_mem, 3, -40
	.dwpsn	file "../utils/ff.c",line 2078,column 17,is_stmt,isa 1
        LDR       A4, [A1, #0]          ; [DPU_3_PIPE] |2078| 
	.dwpsn	file "../utils/ff.c",line 2083,column 2,is_stmt,isa 1
        LDRB      V1, [A4, #0]          ; [DPU_3_PIPE] |2083| 
	.dwpsn	file "../utils/ff.c",line 2072,column 1,is_stmt,isa 1
        MOV       V2, A3                ; [DPU_3_PIPE] |2072| 
	.dwpsn	file "../utils/ff.c",line 2083,column 2,is_stmt,isa 1
        SUBS      V1, V1, #48           ; [DPU_3_PIPE] |2083| 
        CMP       V1, #10               ; [DPU_3_PIPE] |2083| 
        BCS       ||$C$L92||            ; [DPU_3_PIPE] |2083| 
        ; BRANCHCC OCCURS {||$C$L92||}   ; [] |2083| 
;* --------------------------------------------------------------------------*
	.dwpsn	file "../utils/ff.c",line 2084,column 2,is_stmt,isa 1
        LDRB      A3, [A4, #1]          ; [DPU_3_PIPE] |2084| 
        CMP       A3, #58               ; [DPU_3_PIPE] |2084| 
        ITT       EQ                    ; [DPU_3_PIPE] 
	.dwpsn	file "../utils/ff.c",line 2085,column 11,is_stmt,isa 1
        ADDEQ     A4, A4, #2            ; [DPU_3_PIPE] |2085| 
        STREQ     A4, [A1, #0]          ; [DPU_3_PIPE] |2085| 
	.dwpsn	file "../utils/ff.c",line 2086,column 2,is_stmt,isa 1
        BEQ       ||$C$L93||            ; [DPU_3_PIPE] |2086| 
        ; BRANCHCC OCCURS {||$C$L93||}   ; [] |2086| 
;* --------------------------------------------------------------------------*
||$C$L92||:    
	.dwpsn	file "../utils/ff.c",line 2090,column 3,is_stmt,isa 1
        MOVS      V1, #0                ; [DPU_3_PIPE] |2090| 
;* --------------------------------------------------------------------------*
||$C$L93||:    
	.dwpsn	file "../utils/ff.c",line 2095,column 2,is_stmt,isa 1
        MOV       V5, #0                ; [DPU_3_PIPE] |2095| 
	.dwpsn	file "../utils/ff.c",line 2096,column 2,is_stmt,isa 1
        CMP       V1, #0                ; [DPU_3_PIPE] |2096| 
	.dwpsn	file "../utils/ff.c",line 2095,column 2,is_stmt,isa 1
        STR       V5, [A2, #0]          ; [DPU_3_PIPE] |2095| 
        IT        NE                    ; [DPU_3_PIPE] 
	.dwpsn	file "../utils/ff.c",line 2097,column 3,is_stmt,isa 1
        MOVNE     A1, #11               ; [DPU_3_PIPE] |2097| 
        BNE       ||$C$L108||           ; [DPU_3_PIPE] |2097| 
        ; BRANCHCC OCCURS {||$C$L108||}  ; [] |2097| 
;* --------------------------------------------------------------------------*
	.dwpsn	file "../utils/ff.c",line 2098,column 2,is_stmt,isa 1
        MOVW      V7, ||$O1$$||+0       ; [DPU_3_PIPE] |2098| 
        MOVT      V7, ||$O1$$||+0       ; [DPU_3_PIPE] |2098| 
        ADD       A1, V7, V1, LSL #2    ; [DPU_3_PIPE] |2098| 
        LDR       V4, [A1, #4]          ; [DPU_3_PIPE] |2098| 
	.dwpsn	file "../utils/ff.c",line 2099,column 2,is_stmt,isa 1
        CMP       V4, #0                ; [DPU_3_PIPE] |2099| 
        IT        EQ                    ; [DPU_3_PIPE] 
	.dwpsn	file "../utils/ff.c",line 2099,column 11,is_stmt,isa 1
        MOVEQ     A1, #12               ; [DPU_3_PIPE] |2099| 
        BEQ       ||$C$L108||           ; [DPU_3_PIPE] |2099| 
        ; BRANCHCC OCCURS {||$C$L108||}  ; [] |2099| 
;* --------------------------------------------------------------------------*
	.dwpsn	file "../utils/ff.c",line 2103,column 2,is_stmt,isa 1
        STR       V4, [A2, #0]          ; [DPU_3_PIPE] |2103| 
	.dwpsn	file "../utils/ff.c",line 2104,column 2,is_stmt,isa 1
        LDRB      A1, [V4, #0]          ; [DPU_3_PIPE] |2104| 
        CBZ       A1, ||$C$L95||        ; [] 
        ; BRANCHCC OCCURS {||$C$L95||}   ; [] |2104| 
;* --------------------------------------------------------------------------*
	.dwpsn	file "../utils/ff.c",line 2105,column 3,is_stmt,isa 1
        LDRB      A1, [V4, #1]          ; [DPU_3_PIPE] |2105| 
$C$DW$176	.dwtag  DW_TAG_TI_branch
	.dwattr $C$DW$176, DW_AT_low_pc(0x00)
	.dwattr $C$DW$176, DW_AT_name("disk_status")
	.dwattr $C$DW$176, DW_AT_TI_call
        BL        disk_status           ; [DPU_3_PIPE] |2105| 
        ; CALL OCCURS {disk_status }     ; [] |2105| 
	.dwpsn	file "../utils/ff.c",line 2106,column 3,is_stmt,isa 1
        LSRS      A2, A1, #1            ; [DPU_3_PIPE] |2106| 
        BCS       ||$C$L95||            ; [DPU_3_PIPE] |2106| 
        ; BRANCHCC OCCURS {||$C$L95||}   ; [] |2106| 
;* --------------------------------------------------------------------------*
        CBZ       V2, ||$C$L94||        ; [] 
	.dwpsn	file "../utils/ff.c",line 2107,column 4,is_stmt,isa 1
        ; BRANCHCC OCCURS {||$C$L94||}   ; [] |2107| 
;* --------------------------------------------------------------------------*
        LSRS      A1, A1, #3            ; [DPU_3_PIPE] |2107| 
        BCS       ||$C$L96||            ; [DPU_3_PIPE] |2107| 
        ; BRANCHCC OCCURS {||$C$L96||}   ; [] |2107| 
;* --------------------------------------------------------------------------*
||$C$L94||:    
	.dwcfi	remember_state
        MOV       A1, V5                ; [DPU_3_PIPE] 
$C$DW$177	.dwtag  DW_TAG_TI_branch
	.dwattr $C$DW$177, DW_AT_low_pc(0x00)
	.dwattr $C$DW$177, DW_AT_TI_return
        POP       {A4, V1, V2, V3, V4, V5, V6, V7, V8, PC} ; [DPU_3_PIPE] 
	.dwcfi	cfa_offset, 0
        ; BRANCH OCCURS                  ; [] 
	.dwcfi	restore_reg, 11
	.dwcfi	restore_reg, 10
	.dwcfi	restore_reg, 9
	.dwcfi	restore_reg, 8
	.dwcfi	restore_reg, 7
	.dwcfi	restore_reg, 6
	.dwcfi	restore_reg, 5
	.dwcfi	restore_reg, 4
	.dwcfi	restore_reg, 3
	.dwcfi	restore_state
;* --------------------------------------------------------------------------*
	.align	8
||$C$L95||:    
        MOV       V6, V5                ; [DPU_3_PIPE] 
	.dwpsn	file "../utils/ff.c",line 2116,column 2,is_stmt,isa 1
        STRB      V6, [V4, #0]          ; [DPU_3_PIPE] |2116| 
	.dwpsn	file "../utils/ff.c",line 2118,column 2,is_stmt,isa 1
        UXTB      A1, V1                ; [DPU_3_PIPE] |2118| 
	.dwpsn	file "../utils/ff.c",line 2117,column 2,is_stmt,isa 1
        STRB      V1, [V4, #1]          ; [DPU_3_PIPE] |2117| 
	.dwpsn	file "../utils/ff.c",line 2118,column 2,is_stmt,isa 1
$C$DW$178	.dwtag  DW_TAG_TI_branch
	.dwattr $C$DW$178, DW_AT_low_pc(0x00)
	.dwattr $C$DW$178, DW_AT_name("disk_initialize")
	.dwattr $C$DW$178, DW_AT_TI_call
        BL        disk_initialize       ; [DPU_3_PIPE] |2118| 
        ; CALL OCCURS {disk_initialize }  ; [] |2118| 
	.dwpsn	file "../utils/ff.c",line 2119,column 2,is_stmt,isa 1
        LSRS      A2, A1, #1            ; [DPU_3_PIPE] |2119| 
        IT        CS                    ; [DPU_3_PIPE] 
	.dwpsn	file "../utils/ff.c",line 2120,column 3,is_stmt,isa 1
        MOVCS     A1, #3                ; [DPU_3_PIPE] |2120| 
        BCS       ||$C$L108||           ; [DPU_3_PIPE] |2120| 
        ; BRANCHCC OCCURS {||$C$L108||}  ; [] |2120| 
;* --------------------------------------------------------------------------*
        CBZ       V2, ||$C$L97||        ; [] 
	.dwpsn	file "../utils/ff.c",line 2121,column 2,is_stmt,isa 1
        ; BRANCHCC OCCURS {||$C$L97||}   ; [] |2121| 
;* --------------------------------------------------------------------------*
        LSRS      A1, A1, #3            ; [DPU_3_PIPE] |2121| 
        BCC       ||$C$L97||            ; [DPU_3_PIPE] |2121| 
        ; BRANCHCC OCCURS {||$C$L97||}   ; [] |2121| 
;* --------------------------------------------------------------------------*
||$C$L96||:    
	.dwcfi	remember_state
	.dwpsn	file "../utils/ff.c",line 2122,column 3,is_stmt,isa 1
        MOVS      A1, #10               ; [DPU_3_PIPE] |2122| 
$C$DW$179	.dwtag  DW_TAG_TI_branch
	.dwattr $C$DW$179, DW_AT_low_pc(0x00)
	.dwattr $C$DW$179, DW_AT_TI_return
        POP       {A4, V1, V2, V3, V4, V5, V6, V7, V8, PC} ; [DPU_3_PIPE] 
	.dwcfi	cfa_offset, 0
        ; BRANCH OCCURS                  ; [] 
	.dwcfi	restore_reg, 11
	.dwcfi	restore_reg, 10
	.dwcfi	restore_reg, 9
	.dwcfi	restore_reg, 8
	.dwcfi	restore_reg, 7
	.dwcfi	restore_reg, 6
	.dwcfi	restore_reg, 5
	.dwcfi	restore_reg, 4
	.dwcfi	restore_reg, 3
	.dwcfi	restore_state
;* --------------------------------------------------------------------------*
	.align	8
||$C$L97||:    
	.dwpsn	file "../utils/ff.c",line 2128,column 2,is_stmt,isa 1
        MOV       A1, V4                ; [DPU_3_PIPE] |2128| 
        MOV       A2, V6                ; [DPU_3_PIPE] |2128| 
$C$DW$180	.dwtag  DW_TAG_TI_branch
	.dwattr $C$DW$180, DW_AT_low_pc(0x00)
	.dwattr $C$DW$180, DW_AT_name("check_fs")
	.dwattr $C$DW$180, DW_AT_TI_call
        BL        check_fs              ; [DPU_3_PIPE] |2128| 
        ; CALL OCCURS {check_fs }        ; [] |2128| 
        CMP       A1, #1                ; [DPU_3_PIPE] |2128| 
        BEQ       ||$C$L98||            ; [DPU_3_PIPE] |2128| 
        ; BRANCHCC OCCURS {||$C$L98||}   ; [] |2128| 
;* --------------------------------------------------------------------------*
	.dwpsn	file "../utils/ff.c",line 2140,column 2,is_stmt,isa 1
        CMP       A1, #3                ; [DPU_3_PIPE] |2140| 
        BEQ       ||$C$L99||            ; [DPU_3_PIPE] |2140| 
        ; BRANCHCC OCCURS {||$C$L99||}   ; [] |2140| 
;* --------------------------------------------------------------------------*
        MOV       A3, V6                ; [DPU_3_PIPE] 
	.dwpsn	file "../utils/ff.c",line 2141,column 2,is_stmt,isa 1
        B         ||$C$L100||           ; [DPU_3_PIPE] |2141| 
        ; BRANCH OCCURS {||$C$L100||}    ; [] |2141| 
;* --------------------------------------------------------------------------*
	.align	8
||$C$L98||:    
	.dwpsn	file "../utils/ff.c",line 2135,column 3,is_stmt,isa 1
        LDRB      A1, [V4, #502]        ; [DPU_3_PIPE] |2135| 
        CMP       A1, #0                ; [DPU_3_PIPE] |2135| 
        BEQ       ||$C$L105||           ; [DPU_3_PIPE] |2135| 
        ; BRANCHCC OCCURS {||$C$L105||}  ; [] |2135| 
;* --------------------------------------------------------------------------*
	.dwpsn	file "../utils/ff.c",line 2136,column 4,is_stmt,isa 1
        LDRB      A4, [V4, #509]        ; [DPU_3_PIPE] |2136| 
        LDRB      A1, [V4, #508]        ; [DPU_3_PIPE] |2136| 
        LDRB      A2, [V4, #507]        ; [DPU_3_PIPE] |2136| 
        LDRB      A3, [V4, #506]        ; [DPU_3_PIPE] |2136| 
        ORR       A1, A1, A4, LSL #8    ; [DPU_3_PIPE] |2136| 
        LSLS      A1, A1, #16           ; [DPU_3_PIPE] |2136| 
        ORR       A1, A1, A2, LSL #8    ; [DPU_3_PIPE] |2136| 
        ORR       V8, A3, A1            ; [DPU_3_PIPE] |2136| 
	.dwpsn	file "../utils/ff.c",line 2137,column 4,is_stmt,isa 1
        MOV       A1, V4                ; [DPU_3_PIPE] |2137| 
        MOV       A2, V8                ; [DPU_3_PIPE] |2137| 
$C$DW$181	.dwtag  DW_TAG_TI_branch
	.dwattr $C$DW$181, DW_AT_low_pc(0x00)
	.dwattr $C$DW$181, DW_AT_name("check_fs")
	.dwattr $C$DW$181, DW_AT_TI_call
        BL        check_fs              ; [DPU_3_PIPE] |2137| 
        ; CALL OCCURS {check_fs }        ; [] |2137| 
        CMP       A1, #3                ; [DPU_3_PIPE] |2137| 
	.dwpsn	file "../utils/ff.c",line 2136,column 4,is_stmt,isa 1
        MOV       A3, V8                ; [DPU_3_PIPE] |2136| 
	.dwpsn	file "../utils/ff.c",line 2137,column 4,is_stmt,isa 1
        BNE       ||$C$L100||           ; [DPU_3_PIPE] |2137| 
        ; BRANCHCC OCCURS {||$C$L100||}  ; [] |2137| 
;* --------------------------------------------------------------------------*
||$C$L99||:    
	.dwcfi	remember_state
	.dwpsn	file "../utils/ff.c",line 2140,column 16,is_stmt,isa 1
        MOVS      A1, #1                ; [DPU_3_PIPE] |2140| 
$C$DW$182	.dwtag  DW_TAG_TI_branch
	.dwattr $C$DW$182, DW_AT_low_pc(0x00)
	.dwattr $C$DW$182, DW_AT_TI_return
        POP       {A4, V1, V2, V3, V4, V5, V6, V7, V8, PC} ; [DPU_3_PIPE] 
	.dwcfi	cfa_offset, 0
        ; BRANCH OCCURS                  ; [] 
	.dwcfi	restore_reg, 11
	.dwcfi	restore_reg, 10
	.dwcfi	restore_reg, 9
	.dwcfi	restore_reg, 8
	.dwcfi	restore_reg, 7
	.dwcfi	restore_reg, 6
	.dwcfi	restore_reg, 5
	.dwcfi	restore_reg, 4
	.dwcfi	restore_reg, 3
	.dwcfi	restore_state
;* --------------------------------------------------------------------------*
	.align	8
||$C$L100||:    
	.dwpsn	file "../utils/ff.c",line 2141,column 2,is_stmt,isa 1
        CMP       A1, #0                ; [DPU_3_PIPE] |2141| 
        BNE       ||$C$L105||           ; [DPU_3_PIPE] |2141| 
        ; BRANCHCC OCCURS {||$C$L105||}  ; [] |2141| 
;* --------------------------------------------------------------------------*
	.dwpsn	file "../utils/ff.c",line 2145,column 2,is_stmt,isa 1
        LDRB      A2, [V4, #64]         ; [DPU_3_PIPE] |2145| 
        LDRB      A1, [V4, #63]         ; [DPU_3_PIPE] |2145| 
        ORR       A1, A1, A2, LSL #8    ; [DPU_3_PIPE] |2145| 
        CMP       A1, #512              ; [DPU_3_PIPE] |2145| 
        BNE       ||$C$L105||           ; [DPU_3_PIPE] |2145| 
        ; BRANCHCC OCCURS {||$C$L105||}  ; [] |2145| 
;* --------------------------------------------------------------------------*
	.dwpsn	file "../utils/ff.c",line 2148,column 2,is_stmt,isa 1
        LDRB      A2, [V4, #75]         ; [DPU_3_PIPE] |2148| 
        LDRB      A1, [V4, #74]         ; [DPU_3_PIPE] |2148| 
        ORRS      A1, A1, A2, LSL #8    ; [DPU_3_PIPE] |2148| 
        BNE       ||$C$L101||           ; [DPU_3_PIPE] |2148| 
        ; BRANCHCC OCCURS {||$C$L101||}  ; [] |2148| 
;* --------------------------------------------------------------------------*
	.dwpsn	file "../utils/ff.c",line 2149,column 15,is_stmt,isa 1
        LDRB      V1, [V4, #91]         ; [DPU_3_PIPE] |2149| 
        LDRB      A2, [V4, #90]         ; [DPU_3_PIPE] |2149| 
        LDRB      A4, [V4, #89]         ; [DPU_3_PIPE] |2149| 
        LDRB      A1, [V4, #88]         ; [DPU_3_PIPE] |2149| 
        ORR       A2, A2, V1, LSL #8    ; [DPU_3_PIPE] |2149| 
        LSL       V9, A2, #16           ; [DPU_3_PIPE] |2149| 
        ORR       V9, V9, A4, LSL #8    ; [DPU_3_PIPE] |2149| 
        ORR       A1, A1, V9            ; [DPU_3_PIPE] |2149| 
;* --------------------------------------------------------------------------*
||$C$L101||:    
	.dwpsn	file "../utils/ff.c",line 2150,column 2,is_stmt,isa 1
        STR       A1, [V4, #28]         ; [DPU_3_PIPE] |2150| 
	.dwpsn	file "../utils/ff.c",line 2152,column 2,is_stmt,isa 1
        LDRB      A2, [V4, #68]         ; [DPU_3_PIPE] |2152| 
        STRB      A2, [V4, #3]          ; [DPU_3_PIPE] |2152| 
	.dwpsn	file "../utils/ff.c",line 2153,column 2,is_stmt,isa 1
        CMP       A2, #1                ; [DPU_3_PIPE] |2153| 
        IT        NE                    ; [DPU_3_PIPE] 
        CMPNE     A2, #2                ; [DPU_3_PIPE] |2153| 
        BNE       ||$C$L105||           ; [DPU_3_PIPE] |2153| 
        ; BRANCHCC OCCURS {||$C$L105||}  ; [] |2153| 
;* --------------------------------------------------------------------------*
	.dwpsn	file "../utils/ff.c",line 2156,column 2,is_stmt,isa 1
        LDRB      V3, [V4, #65]         ; [DPU_3_PIPE] |2156| 
	.dwpsn	file "../utils/ff.c",line 2154,column 2,is_stmt,isa 1
        MULS      A1, A2, A1            ; [DPU_3_PIPE] |2154| 
	.dwpsn	file "../utils/ff.c",line 2157,column 2,is_stmt,isa 1
        CMP       V3, #0                ; [DPU_3_PIPE] |2157| 
	.dwpsn	file "../utils/ff.c",line 2156,column 2,is_stmt,isa 1
        STRB      V3, [V4, #2]          ; [DPU_3_PIPE] |2156| 
	.dwpsn	file "../utils/ff.c",line 2157,column 2,is_stmt,isa 1
        BEQ       ||$C$L105||           ; [DPU_3_PIPE] |2157| 
        ; BRANCHCC OCCURS {||$C$L105||}  ; [] |2157| 
;* --------------------------------------------------------------------------*
        SUBS      A2, V3, #1            ; [DPU_3_PIPE] |2157| 
        TST       V3, A2                ; [DPU_3_PIPE] |2157| 
        BNE       ||$C$L105||           ; [DPU_3_PIPE] |2157| 
        ; BRANCHCC OCCURS {||$C$L105||}  ; [] |2157| 
;* --------------------------------------------------------------------------*
	.dwpsn	file "../utils/ff.c",line 2159,column 2,is_stmt,isa 1
        LDRB      A4, [V4, #70]         ; [DPU_3_PIPE] |2159| 
        LDRB      A2, [V4, #69]         ; [DPU_3_PIPE] |2159| 
        ORR       A2, A2, A4, LSL #8    ; [DPU_3_PIPE] |2159| 
        UXTH      A2, A2                ; [DPU_3_PIPE] |2159| 
	.dwpsn	file "../utils/ff.c",line 2160,column 2,is_stmt,isa 1
        TST       A2, #15               ; [DPU_3_PIPE] |2160| 
	.dwpsn	file "../utils/ff.c",line 2159,column 2,is_stmt,isa 1
        STRH      A2, [V4, #8]          ; [DPU_3_PIPE] |2159| 
	.dwpsn	file "../utils/ff.c",line 2160,column 2,is_stmt,isa 1
        BNE       ||$C$L105||           ; [DPU_3_PIPE] |2160| 
        ; BRANCHCC OCCURS {||$C$L105||}  ; [] |2160| 
;* --------------------------------------------------------------------------*
	.dwpsn	file "../utils/ff.c",line 2162,column 2,is_stmt,isa 1
        LDRB      A4, [V4, #72]         ; [DPU_3_PIPE] |2162| 
        LDRB      V3, [V4, #71]         ; [DPU_3_PIPE] |2162| 
        ORRS      V3, V3, A4, LSL #8    ; [DPU_3_PIPE] |2162| 
        BNE       ||$C$L102||           ; [DPU_3_PIPE] |2162| 
        ; BRANCHCC OCCURS {||$C$L102||}  ; [] |2162| 
;* --------------------------------------------------------------------------*
	.dwpsn	file "../utils/ff.c",line 2163,column 14,is_stmt,isa 1
        LDRB      V2, [V4, #87]         ; [DPU_3_PIPE] |2163| 
        LDRB      A4, [V4, #86]         ; [DPU_3_PIPE] |2163| 
        LDRB      V1, [V4, #85]         ; [DPU_3_PIPE] |2163| 
        LDRB      V3, [V4, #84]         ; [DPU_3_PIPE] |2163| 
        ORR       A4, A4, V2, LSL #8    ; [DPU_3_PIPE] |2163| 
        LSL       V9, A4, #16           ; [DPU_3_PIPE] |2163| 
        ORR       V9, V9, V1, LSL #8    ; [DPU_3_PIPE] |2163| 
        ORR       V3, V3, V9            ; [DPU_3_PIPE] |2163| 
;* --------------------------------------------------------------------------*
||$C$L102||:    
	.dwpsn	file "../utils/ff.c",line 2165,column 2,is_stmt,isa 1
        LDRB      A4, [V4, #67]         ; [DPU_3_PIPE] |2165| 
        LDRB      V2, [V4, #66]         ; [DPU_3_PIPE] |2165| 
        ORRS      V2, V2, A4, LSL #8    ; [DPU_3_PIPE] |2165| 
        BEQ       ||$C$L105||           ; [DPU_3_PIPE] |2165| 
        ; BRANCHCC OCCURS {||$C$L105||}  ; [] |2165| 
;* --------------------------------------------------------------------------*
	.dwpsn	file "../utils/ff.c",line 2169,column 2,is_stmt,isa 1
        ADD       A4, V2, A2, ASR #4    ; [DPU_3_PIPE] |2169| 
        ADD       V9, A1, A4            ; [DPU_3_PIPE] |2169| 
	.dwpsn	file "../utils/ff.c",line 2170,column 2,is_stmt,isa 1
        CMP       V9, V3                ; [DPU_3_PIPE] |2170| 
        BHI       ||$C$L105||           ; [DPU_3_PIPE] |2170| 
        ; BRANCHCC OCCURS {||$C$L105||}  ; [] |2170| 
;* --------------------------------------------------------------------------*
	.dwpsn	file "../utils/ff.c",line 2171,column 2,is_stmt,isa 1
        LDRB      A4, [V4, #2]          ; [DPU_3_PIPE] |2171| 
        SUB       V3, V3, V9            ; [DPU_3_PIPE] |2171| 
        UDIV      V3, V3, A4            ; [DPU_3_PIPE] |2171| 
        CMP       V3, #0                ; [DPU_3_PIPE] |2171| 
        BEQ       ||$C$L105||           ; [DPU_3_PIPE] |2171| 
        ; BRANCHCC OCCURS {||$C$L105||}  ; [] |2171| 
;* --------------------------------------------------------------------------*
	.dwpsn	file "../utils/ff.c",line 2174,column 2,is_stmt,isa 1
        MOV       A4, #4085             ; [DPU_3_PIPE] |2174| 
        CMP       A4, V3                ; [DPU_3_PIPE] |2174| 
        BCC       ||$C$L103||           ; [DPU_3_PIPE] |2174| 
        ; BRANCHCC OCCURS {||$C$L103||}  ; [] |2174| 
;* --------------------------------------------------------------------------*
	.dwpsn	file "../utils/ff.c",line 2178,column 2,is_stmt,isa 1
        ADDS      V3, V3, #2            ; [DPU_3_PIPE] |2178| 
        STR       V3, [V4, #24]         ; [DPU_3_PIPE] |2178| 
	.dwpsn	file "../utils/ff.c",line 2180,column 2,is_stmt,isa 1
        ADDS      V2, V2, A3            ; [DPU_3_PIPE] |2180| 
	.dwpsn	file "../utils/ff.c",line 2179,column 2,is_stmt,isa 1
        STR       A3, [V4, #32]         ; [DPU_3_PIPE] |2179| 
	.dwpsn	file "../utils/ff.c",line 2181,column 2,is_stmt,isa 1
        ADD       V9, V9, A3            ; [DPU_3_PIPE] |2181| 
	.dwpsn	file "../utils/ff.c",line 2180,column 2,is_stmt,isa 1
        STR       V2, [V4, #36]         ; [DPU_3_PIPE] |2180| 
	.dwpsn	file "../utils/ff.c",line 2187,column 3,is_stmt,isa 1
        CMP       A2, #0                ; [DPU_3_PIPE] |2187| 
	.dwpsn	file "../utils/ff.c",line 2181,column 2,is_stmt,isa 1
        STR       V9, [V4, #44]         ; [DPU_3_PIPE] |2181| 
	.dwpsn	file "../utils/ff.c",line 2187,column 3,is_stmt,isa 1
        BEQ       ||$C$L105||           ; [DPU_3_PIPE] |2187| 
        ; BRANCHCC OCCURS {||$C$L105||}  ; [] |2187| 
;* --------------------------------------------------------------------------*
	.dwpsn	file "../utils/ff.c",line 2188,column 3,is_stmt,isa 1
        LDR       A2, [V4, #36]         ; [DPU_3_PIPE] |2188| 
        ADDS      A1, A1, A2            ; [DPU_3_PIPE] |2188| 
        STR       A1, [V4, #40]         ; [DPU_3_PIPE] |2188| 
	.dwpsn	file "../utils/ff.c",line 2192,column 2,is_stmt,isa 1
        LDR       A1, [V4, #24]         ; [DPU_3_PIPE] |2192| 
        LDR       A2, [V4, #28]         ; [DPU_3_PIPE] |2192| 
        ADD       A3, A1, A1, LSL #1    ; [DPU_3_PIPE] |2192| 
        AND       A1, A1, #1            ; [DPU_3_PIPE] |2192| 
        ADD       A1, A1, A3, LSR #1    ; [DPU_3_PIPE] |2192| 
        ADD       A1, A1, #511          ; [DPU_3_PIPE] |2192| 
        CMP       A2, A1, LSR #9        ; [DPU_3_PIPE] |2192| 
        BCC       ||$C$L105||           ; [DPU_3_PIPE] |2192| 
        ; BRANCHCC OCCURS {||$C$L105||}  ; [] |2192| 
;* --------------------------------------------------------------------------*
	.dwpsn	file "../utils/ff.c",line 2197,column 2,is_stmt,isa 1
        MOV       A1, #-1               ; [DPU_3_PIPE] |2197| 
        STR       A1, [V4, #16]         ; [DPU_3_PIPE] |2197| 
	.dwpsn	file "../utils/ff.c",line 2173,column 2,is_stmt,isa 1
        MOV       V9, #1                ; [DPU_3_PIPE] |2173| 
	.dwpsn	file "../utils/ff.c",line 2198,column 2,is_stmt,isa 1
        STR       V5, [V4, #12]         ; [DPU_3_PIPE] |2198| 
	.dwpsn	file "../utils/ff.c",line 2201,column 2,is_stmt,isa 1
        B         ||$C$L107||           ; [DPU_3_PIPE] |2201| 
        ; BRANCH OCCURS {||$C$L107||}    ; [] |2201| 
;* --------------------------------------------------------------------------*
	.align	8
||$C$L103||:    
	.dwpsn	file "../utils/ff.c",line 2175,column 2,is_stmt,isa 1
        MOV       A4, #65525            ; [DPU_3_PIPE] |2175| 
        CMP       A4, V3                ; [DPU_3_PIPE] |2175| 
        BCC       ||$C$L104||           ; [DPU_3_PIPE] |2175| 
        ; BRANCHCC OCCURS {||$C$L104||}  ; [] |2175| 
;* --------------------------------------------------------------------------*
	.dwpsn	file "../utils/ff.c",line 2178,column 2,is_stmt,isa 1
        ADDS      V3, V3, #2            ; [DPU_3_PIPE] |2178| 
        STR       V3, [V4, #24]         ; [DPU_3_PIPE] |2178| 
	.dwpsn	file "../utils/ff.c",line 2180,column 2,is_stmt,isa 1
        ADDS      V2, V2, A3            ; [DPU_3_PIPE] |2180| 
	.dwpsn	file "../utils/ff.c",line 2179,column 2,is_stmt,isa 1
        STR       A3, [V4, #32]         ; [DPU_3_PIPE] |2179| 
	.dwpsn	file "../utils/ff.c",line 2181,column 2,is_stmt,isa 1
        ADD       V9, V9, A3            ; [DPU_3_PIPE] |2181| 
	.dwpsn	file "../utils/ff.c",line 2180,column 2,is_stmt,isa 1
        STR       V2, [V4, #36]         ; [DPU_3_PIPE] |2180| 
	.dwpsn	file "../utils/ff.c",line 2181,column 2,is_stmt,isa 1
        STR       V9, [V4, #44]         ; [DPU_3_PIPE] |2181| 
        CBZ       A2, ||$C$L105||       ; [] 
	.dwpsn	file "../utils/ff.c",line 2187,column 3,is_stmt,isa 1
        ; BRANCHCC OCCURS {||$C$L105||}  ; [] |2187| 
;* --------------------------------------------------------------------------*
	.dwpsn	file "../utils/ff.c",line 2188,column 3,is_stmt,isa 1
        LDR       A2, [V4, #36]         ; [DPU_3_PIPE] |2188| 
        ADDS      A1, A1, A2            ; [DPU_3_PIPE] |2188| 
        STR       A1, [V4, #40]         ; [DPU_3_PIPE] |2188| 
	.dwpsn	file "../utils/ff.c",line 2192,column 2,is_stmt,isa 1
        LDR       A1, [V4, #24]         ; [DPU_3_PIPE] |2192| 
        LDR       A2, [V4, #28]         ; [DPU_3_PIPE] |2192| 
        LSLS      A1, A1, #1            ; [DPU_3_PIPE] |2192| 
        ADD       A1, A1, #511          ; [DPU_3_PIPE] |2192| 
        CMP       A2, A1, LSR #9        ; [DPU_3_PIPE] |2192| 
        BCC       ||$C$L105||           ; [DPU_3_PIPE] |2192| 
        ; BRANCHCC OCCURS {||$C$L105||}  ; [] |2192| 
;* --------------------------------------------------------------------------*
	.dwpsn	file "../utils/ff.c",line 2197,column 2,is_stmt,isa 1
        MOV       A1, #-1               ; [DPU_3_PIPE] |2197| 
        STR       A1, [V4, #16]         ; [DPU_3_PIPE] |2197| 
	.dwpsn	file "../utils/ff.c",line 2174,column 26,is_stmt,isa 1
        MOV       V9, #2                ; [DPU_3_PIPE] |2174| 
	.dwpsn	file "../utils/ff.c",line 2198,column 2,is_stmt,isa 1
        STR       V5, [V4, #12]         ; [DPU_3_PIPE] |2198| 
	.dwpsn	file "../utils/ff.c",line 2201,column 2,is_stmt,isa 1
        B         ||$C$L107||           ; [DPU_3_PIPE] |2201| 
        ; BRANCH OCCURS {||$C$L107||}    ; [] |2201| 
;* --------------------------------------------------------------------------*
	.align	8
||$C$L104||:    
	.dwpsn	file "../utils/ff.c",line 2178,column 2,is_stmt,isa 1
        ADDS      V3, V3, #2            ; [DPU_3_PIPE] |2178| 
        STR       V3, [V4, #24]         ; [DPU_3_PIPE] |2178| 
	.dwpsn	file "../utils/ff.c",line 2180,column 2,is_stmt,isa 1
        ADDS      V2, V2, A3            ; [DPU_3_PIPE] |2180| 
	.dwpsn	file "../utils/ff.c",line 2179,column 2,is_stmt,isa 1
        STR       A3, [V4, #32]         ; [DPU_3_PIPE] |2179| 
	.dwpsn	file "../utils/ff.c",line 2181,column 2,is_stmt,isa 1
        ADD       V9, V9, A3            ; [DPU_3_PIPE] |2181| 
	.dwpsn	file "../utils/ff.c",line 2180,column 2,is_stmt,isa 1
        STR       V2, [V4, #36]         ; [DPU_3_PIPE] |2180| 
	.dwpsn	file "../utils/ff.c",line 2181,column 2,is_stmt,isa 1
        STR       V9, [V4, #44]         ; [DPU_3_PIPE] |2181| 
        CBNZ      A2, ||$C$L105||       ; [] 
	.dwpsn	file "../utils/ff.c",line 2183,column 3,is_stmt,isa 1
        ; BRANCHCC OCCURS {||$C$L105||}  ; [] |2183| 
;* --------------------------------------------------------------------------*
	.dwpsn	file "../utils/ff.c",line 2184,column 3,is_stmt,isa 1
        LDRB      V1, [V4, #99]         ; [DPU_3_PIPE] |2184| 
        LDRB      A1, [V4, #98]         ; [DPU_3_PIPE] |2184| 
        LDRB      A4, [V4, #97]         ; [DPU_3_PIPE] |2184| 
        LDRB      A2, [V4, #96]         ; [DPU_3_PIPE] |2184| 
        ORR       A1, A1, V1, LSL #8    ; [DPU_3_PIPE] |2184| 
        LSLS      A1, A1, #16           ; [DPU_3_PIPE] |2184| 
        ORR       A1, A1, A4, LSL #8    ; [DPU_3_PIPE] |2184| 
        ORRS      A2, A2, A1            ; [DPU_3_PIPE] |2184| 
        STR       A2, [V4, #40]         ; [DPU_3_PIPE] |2184| 
	.dwpsn	file "../utils/ff.c",line 2192,column 2,is_stmt,isa 1
        LDR       A1, [V4, #24]         ; [DPU_3_PIPE] |2192| 
        LDR       A2, [V4, #28]         ; [DPU_3_PIPE] |2192| 
        LSLS      A1, A1, #2            ; [DPU_3_PIPE] |2192| 
        ADD       A1, A1, #511          ; [DPU_3_PIPE] |2192| 
        CMP       A2, A1, LSR #9        ; [DPU_3_PIPE] |2192| 
        BCS       ||$C$L106||           ; [DPU_3_PIPE] |2192| 
        ; BRANCHCC OCCURS {||$C$L106||}  ; [] |2192| 
;* --------------------------------------------------------------------------*
||$C$L105||:    
	.dwcfi	remember_state
	.dwpsn	file "../utils/ff.c",line 2193,column 3,is_stmt,isa 1
        MOVS      A1, #13               ; [DPU_3_PIPE] |2193| 
$C$DW$183	.dwtag  DW_TAG_TI_branch
	.dwattr $C$DW$183, DW_AT_low_pc(0x00)
	.dwattr $C$DW$183, DW_AT_TI_return
        POP       {A4, V1, V2, V3, V4, V5, V6, V7, V8, PC} ; [DPU_3_PIPE] 
	.dwcfi	cfa_offset, 0
        ; BRANCH OCCURS                  ; [] 
	.dwcfi	restore_reg, 11
	.dwcfi	restore_reg, 10
	.dwcfi	restore_reg, 9
	.dwcfi	restore_reg, 8
	.dwcfi	restore_reg, 7
	.dwcfi	restore_reg, 6
	.dwcfi	restore_reg, 5
	.dwcfi	restore_reg, 4
	.dwcfi	restore_reg, 3
	.dwcfi	restore_state
;* --------------------------------------------------------------------------*
	.align	8
||$C$L106||:    
	.dwpsn	file "../utils/ff.c",line 2197,column 2,is_stmt,isa 1
        MOV       A1, #-1               ; [DPU_3_PIPE] |2197| 
        STR       A1, [V4, #16]         ; [DPU_3_PIPE] |2197| 
	.dwpsn	file "../utils/ff.c",line 2203,column 3,is_stmt,isa 1
        LDRB      A2, [V4, #101]        ; [DPU_3_PIPE] |2203| 
        LDRB      LR, [V4, #100]        ; [DPU_3_PIPE] |2203| 
	.dwpsn	file "../utils/ff.c",line 2198,column 2,is_stmt,isa 1
        STR       V5, [V4, #12]         ; [DPU_3_PIPE] |2198| 
	.dwpsn	file "../utils/ff.c",line 2204,column 3,is_stmt,isa 1
        MOVS      A4, #1                ; [DPU_3_PIPE] |2204| 
	.dwpsn	file "../utils/ff.c",line 2202,column 4,is_stmt,isa 1
        STRB      V6, [V4, #5]          ; [DPU_3_PIPE] |2202| 
	.dwpsn	file "../utils/ff.c",line 2203,column 3,is_stmt,isa 1
        ORR       A1, LR, A2, LSL #8    ; [DPU_3_PIPE] |2203| 
        ADDS      A3, A3, A1            ; [DPU_3_PIPE] |2203| 
	.dwpsn	file "../utils/ff.c",line 2204,column 3,is_stmt,isa 1
        ADD       A2, V4, #52           ; [DPU_3_PIPE] |2204| 
        LDRB      A1, [V4, #1]          ; [DPU_3_PIPE] |2204| 
	.dwpsn	file "../utils/ff.c",line 2203,column 3,is_stmt,isa 1
        STR       A3, [V4, #20]         ; [DPU_3_PIPE] |2203| 
	.dwpsn	file "../utils/ff.c",line 2204,column 3,is_stmt,isa 1
$C$DW$184	.dwtag  DW_TAG_TI_branch
	.dwattr $C$DW$184, DW_AT_low_pc(0x00)
	.dwattr $C$DW$184, DW_AT_name("disk_read")
	.dwattr $C$DW$184, DW_AT_TI_call
        BL        disk_read             ; [DPU_3_PIPE] |2204| 
        ; CALL OCCURS {disk_read }       ; [] |2204| 
	.dwpsn	file "../utils/ff.c",line 2175,column 26,is_stmt,isa 1
        MOV       V9, #3                ; [DPU_3_PIPE] |2175| 
	.dwpsn	file "../utils/ff.c",line 2204,column 3,is_stmt,isa 1
        CMP       A1, #0                ; [DPU_3_PIPE] |2204| 
        BNE       ||$C$L107||           ; [DPU_3_PIPE] |2204| 
        ; BRANCHCC OCCURS {||$C$L107||}  ; [] |2204| 
;* --------------------------------------------------------------------------*
        LDRB      A3, [V4, #563]        ; [DPU_3_PIPE] |2204| 
        LDRB      A1, [V4, #562]        ; [DPU_3_PIPE] |2204| 
        MOV       A2, #43605            ; [DPU_3_PIPE] |2204| 
        ORR       A1, A1, A3, LSL #8    ; [DPU_3_PIPE] |2204| 
        CMP       A2, A1                ; [DPU_3_PIPE] |2204| 
        BNE       ||$C$L107||           ; [DPU_3_PIPE] |2204| 
        ; BRANCHCC OCCURS {||$C$L107||}  ; [] |2204| 
;* --------------------------------------------------------------------------*
        LDRB      A4, [V4, #55]         ; [DPU_3_PIPE] |2204| 
        LDRB      A1, [V4, #54]         ; [DPU_3_PIPE] |2204| 
        LDRB      A3, [V4, #53]         ; [DPU_3_PIPE] |2204| 
        LDRB      A2, [V4, #52]         ; [DPU_3_PIPE] |2204| 
        MOVW      LR, #21074            ; [DPU_3_PIPE] |2204| 
        MOVT      LR, #16737            ; [DPU_3_PIPE] |2204| 
        ORR       A1, A1, A4, LSL #8    ; [DPU_3_PIPE] |2204| 
        LSLS      A1, A1, #16           ; [DPU_3_PIPE] |2204| 
        ORR       A1, A1, A3, LSL #8    ; [DPU_3_PIPE] |2204| 
        ORRS      A2, A2, A1            ; [DPU_3_PIPE] |2204| 
        CMP       LR, A2                ; [DPU_3_PIPE] |2204| 
        BNE       ||$C$L107||           ; [DPU_3_PIPE] |2204| 
        ; BRANCHCC OCCURS {||$C$L107||}  ; [] |2204| 
;* --------------------------------------------------------------------------*
        LDRB      A4, [V4, #539]        ; [DPU_3_PIPE] |2204| 
        LDRB      A1, [V4, #538]        ; [DPU_3_PIPE] |2204| 
        LDRB      A3, [V4, #537]        ; [DPU_3_PIPE] |2204| 
        LDRB      A2, [V4, #536]        ; [DPU_3_PIPE] |2204| 
        MOVW      LR, #29298            ; [DPU_3_PIPE] |2204| 
        MOVT      LR, #24897            ; [DPU_3_PIPE] |2204| 
        ORR       A1, A1, A4, LSL #8    ; [DPU_3_PIPE] |2204| 
        LSLS      A1, A1, #16           ; [DPU_3_PIPE] |2204| 
        ORR       A1, A1, A3, LSL #8    ; [DPU_3_PIPE] |2204| 
        ORRS      A2, A2, A1            ; [DPU_3_PIPE] |2204| 
        CMP       LR, A2                ; [DPU_3_PIPE] |2204| 
        BNE       ||$C$L107||           ; [DPU_3_PIPE] |2204| 
        ; BRANCHCC OCCURS {||$C$L107||}  ; [] |2204| 
;* --------------------------------------------------------------------------*
	.dwpsn	file "../utils/ff.c",line 2208,column 5,is_stmt,isa 1
        LDRB      LR, [V4, #547]        ; [DPU_3_PIPE] |2208| 
        LDRB      A3, [V4, #546]        ; [DPU_3_PIPE] |2208| 
	.dwpsn	file "../utils/ff.c",line 2209,column 5,is_stmt,isa 1
        LDRB      V2, [V4, #543]        ; [DPU_3_PIPE] |2209| 
        LDRB      A1, [V4, #542]        ; [DPU_3_PIPE] |2209| 
	.dwpsn	file "../utils/ff.c",line 2208,column 5,is_stmt,isa 1
        LDRB      V3, [V4, #545]        ; [DPU_3_PIPE] |2208| 
	.dwpsn	file "../utils/ff.c",line 2209,column 5,is_stmt,isa 1
        LDRB      V1, [V4, #541]        ; [DPU_3_PIPE] |2209| 
	.dwpsn	file "../utils/ff.c",line 2208,column 5,is_stmt,isa 1
        LDRB      A4, [V4, #544]        ; [DPU_3_PIPE] |2208| 
	.dwpsn	file "../utils/ff.c",line 2209,column 5,is_stmt,isa 1
        LDRB      A2, [V4, #540]        ; [DPU_3_PIPE] |2209| 
	.dwpsn	file "../utils/ff.c",line 2208,column 5,is_stmt,isa 1
        ORR       A3, A3, LR, LSL #8    ; [DPU_3_PIPE] |2208| 
	.dwpsn	file "../utils/ff.c",line 2209,column 5,is_stmt,isa 1
        ORR       A1, A1, V2, LSL #8    ; [DPU_3_PIPE] |2209| 
	.dwpsn	file "../utils/ff.c",line 2208,column 5,is_stmt,isa 1
        LSLS      A3, A3, #16           ; [DPU_3_PIPE] |2208| 
	.dwpsn	file "../utils/ff.c",line 2209,column 5,is_stmt,isa 1
        LSLS      A1, A1, #16           ; [DPU_3_PIPE] |2209| 
	.dwpsn	file "../utils/ff.c",line 2208,column 5,is_stmt,isa 1
        ORR       A3, A3, V3, LSL #8    ; [DPU_3_PIPE] |2208| 
	.dwpsn	file "../utils/ff.c",line 2209,column 5,is_stmt,isa 1
        ORR       A1, A1, V1, LSL #8    ; [DPU_3_PIPE] |2209| 
	.dwpsn	file "../utils/ff.c",line 2208,column 5,is_stmt,isa 1
        ORRS      A4, A4, A3            ; [DPU_3_PIPE] |2208| 
        STR       A4, [V4, #12]         ; [DPU_3_PIPE] |2208| 
	.dwpsn	file "../utils/ff.c",line 2209,column 5,is_stmt,isa 1
        ORRS      A2, A2, A1            ; [DPU_3_PIPE] |2209| 
        STR       A2, [V4, #16]         ; [DPU_3_PIPE] |2209| 
;* --------------------------------------------------------------------------*
||$C$L107||:    
	.dwpsn	file "../utils/ff.c",line 2213,column 2,is_stmt,isa 1
        STRB      V9, [V4, #0]          ; [DPU_3_PIPE] |2213| 
	.dwpsn	file "../utils/ff.c",line 2214,column 2,is_stmt,isa 1
        LDRH      A1, [V7, #0]          ; [DPU_3_PIPE] |2214| 
	.dwpsn	file "../utils/ff.c",line 2215,column 2,is_stmt,isa 1
        STR       V5, [V4, #48]         ; [DPU_3_PIPE] |2215| 
	.dwpsn	file "../utils/ff.c",line 2214,column 2,is_stmt,isa 1
        ADDS      A1, A1, #1            ; [DPU_3_PIPE] |2214| 
        UXTH      A1, A1                ; [DPU_3_PIPE] |2214| 
        STRH      A1, [V7, #0]          ; [DPU_3_PIPE] |2214| 
        STRH      A1, [V4, #6]          ; [DPU_3_PIPE] |2214| 
	.dwpsn	file "../utils/ff.c",line 2215,column 2,is_stmt,isa 1
        MOV       A1, V6                ; [DPU_3_PIPE] |2215| 
	.dwpsn	file "../utils/ff.c",line 2216,column 2,is_stmt,isa 1
        STRB      V6, [V4, #4]          ; [DPU_3_PIPE] |2216| 
;* --------------------------------------------------------------------------*
||$C$L108||:    
$C$DW$185	.dwtag  DW_TAG_TI_branch
	.dwattr $C$DW$185, DW_AT_low_pc(0x00)
	.dwattr $C$DW$185, DW_AT_TI_return
        POP       {A4, V1, V2, V3, V4, V5, V6, V7, V8, PC} ; [DPU_3_PIPE] 
	.dwcfi	cfa_offset, 0
        ; BRANCH OCCURS                  ; [] 
	.dwattr $C$DW$154, DW_AT_TI_end_file("../utils/ff.c")
	.dwattr $C$DW$154, DW_AT_TI_end_line(0x8b1)
	.dwattr $C$DW$154, DW_AT_TI_end_column(0x01)
	.dwendentry
	.dwendtag $C$DW$154

	.sect	".text"
	.align	8
	.clink
	.thumbfunc create_name
	.thumb

$C$DW$186	.dwtag  DW_TAG_subprogram, DW_AT_name("create_name")
	.dwattr $C$DW$186, DW_AT_low_pc(create_name)
	.dwattr $C$DW$186, DW_AT_high_pc(0x00)
	.dwattr $C$DW$186, DW_AT_TI_symbol_name("create_name")
	.dwattr $C$DW$186, DW_AT_type(*$C$DW$T$53)
	.dwattr $C$DW$186, DW_AT_TI_begin_file("../utils/ff.c")
	.dwattr $C$DW$186, DW_AT_TI_begin_line(0x697)
	.dwattr $C$DW$186, DW_AT_TI_begin_column(0x09)
	.dwattr $C$DW$186, DW_AT_decl_file("../utils/ff.c")
	.dwattr $C$DW$186, DW_AT_decl_line(0x697)
	.dwattr $C$DW$186, DW_AT_decl_column(0x09)
	.dwattr $C$DW$186, DW_AT_TI_max_frame_size(0x18)
	.dwpsn	file "../utils/ff.c",line 1691,column 1,is_stmt,address create_name,isa 1

	.dwfde $C$DW$CIE, create_name
$C$DW$187	.dwtag  DW_TAG_formal_parameter, DW_AT_name("dj")
	.dwattr $C$DW$187, DW_AT_TI_symbol_name("dj")
	.dwattr $C$DW$187, DW_AT_type(*$C$DW$T$58)
	.dwattr $C$DW$187, DW_AT_location[DW_OP_reg0]
$C$DW$188	.dwtag  DW_TAG_formal_parameter, DW_AT_name("path")
	.dwattr $C$DW$188, DW_AT_TI_symbol_name("path")
	.dwattr $C$DW$188, DW_AT_type(*$C$DW$T$66)
	.dwattr $C$DW$188, DW_AT_location[DW_OP_reg1]

;*****************************************************************************
;* FUNCTION NAME: create_name                                                *
;*                                                                           *
;*   Regs Modified     : A1,A2,A3,A4,V1,V2,V3,V4,V5,V9,SP,LR,SR              *
;*   Regs Used         : A1,A2,A3,A4,V1,V2,V3,V4,V5,V9,SP,LR,SR              *
;*   Local Frame Size  : 0 Args + 0 Auto + 24 Save = 24 byte                 *
;*****************************************************************************
create_name:
;* --------------------------------------------------------------------------*
;* A3    assigned to $O$C1
;* A4    assigned to $O$K24
;* V2    assigned to $O$U50
;* V4    assigned to $O$U103
;* V3    assigned to $O$U100
;* V4    assigned to cnt
$C$DW$189	.dwtag  DW_TAG_variable, DW_AT_name("cnt")
	.dwattr $C$DW$189, DW_AT_TI_symbol_name("cnt")
	.dwattr $C$DW$189, DW_AT_type(*$C$DW$T$61)
	.dwattr $C$DW$189, DW_AT_location[DW_OP_reg7]
;* A1    assigned to d
$C$DW$190	.dwtag  DW_TAG_variable, DW_AT_name("d")
	.dwattr $C$DW$190, DW_AT_TI_symbol_name("d")
	.dwattr $C$DW$190, DW_AT_type(*$C$DW$T$26)
	.dwattr $C$DW$190, DW_AT_location[DW_OP_reg0]
;* V2    assigned to str
$C$DW$191	.dwtag  DW_TAG_variable, DW_AT_name("str")
	.dwattr $C$DW$191, DW_AT_TI_symbol_name("str")
	.dwattr $C$DW$191, DW_AT_type(*$C$DW$T$196)
	.dwattr $C$DW$191, DW_AT_location[DW_OP_reg5]
;* V3    assigned to chr
$C$DW$192	.dwtag  DW_TAG_variable, DW_AT_name("chr")
	.dwattr $C$DW$192, DW_AT_TI_symbol_name("chr")
	.dwattr $C$DW$192, DW_AT_type(*$C$DW$T$6)
	.dwattr $C$DW$192, DW_AT_location[DW_OP_reg6]
;* V5    assigned to p
$C$DW$193	.dwtag  DW_TAG_variable, DW_AT_name("p")
	.dwattr $C$DW$193, DW_AT_TI_symbol_name("p")
	.dwattr $C$DW$193, DW_AT_type(*$C$DW$T$196)
	.dwattr $C$DW$193, DW_AT_location[DW_OP_reg8]
;* A1    assigned to i
$C$DW$194	.dwtag  DW_TAG_variable, DW_AT_name("i")
	.dwattr $C$DW$194, DW_AT_TI_symbol_name("i")
	.dwattr $C$DW$194, DW_AT_type(*$C$DW$T$61)
	.dwattr $C$DW$194, DW_AT_location[DW_OP_reg0]
;* V1    assigned to si
$C$DW$195	.dwtag  DW_TAG_variable, DW_AT_name("si")
	.dwattr $C$DW$195, DW_AT_TI_symbol_name("si")
	.dwattr $C$DW$195, DW_AT_type(*$C$DW$T$61)
	.dwattr $C$DW$195, DW_AT_location[DW_OP_reg4]
;* A4    assigned to ni
$C$DW$196	.dwtag  DW_TAG_variable, DW_AT_name("ni")
	.dwattr $C$DW$196, DW_AT_TI_symbol_name("ni")
	.dwattr $C$DW$196, DW_AT_type(*$C$DW$T$61)
	.dwattr $C$DW$196, DW_AT_location[DW_OP_reg3]
;* A3    assigned to sfn
$C$DW$197	.dwtag  DW_TAG_variable, DW_AT_name("sfn")
	.dwattr $C$DW$197, DW_AT_TI_symbol_name("sfn")
	.dwattr $C$DW$197, DW_AT_type(*$C$DW$T$26)
	.dwattr $C$DW$197, DW_AT_location[DW_OP_reg2]
;* V3    assigned to d
$C$DW$198	.dwtag  DW_TAG_variable, DW_AT_name("d")
	.dwattr $C$DW$198, DW_AT_TI_symbol_name("d")
	.dwattr $C$DW$198, DW_AT_type(*$C$DW$T$10)
	.dwattr $C$DW$198, DW_AT_location[DW_OP_reg6]
;* LR    assigned to b
$C$DW$199	.dwtag  DW_TAG_variable, DW_AT_name("b")
	.dwattr $C$DW$199, DW_AT_TI_symbol_name("b")
	.dwattr $C$DW$199, DW_AT_type(*$C$DW$T$10)
	.dwattr $C$DW$199, DW_AT_location[DW_OP_reg14]
;* A2    assigned to path
$C$DW$200	.dwtag  DW_TAG_variable, DW_AT_name("path")
	.dwattr $C$DW$200, DW_AT_TI_symbol_name("path")
	.dwattr $C$DW$200, DW_AT_type(*$C$DW$T$215)
	.dwattr $C$DW$200, DW_AT_location[DW_OP_reg1]
;* A1    assigned to dj
$C$DW$201	.dwtag  DW_TAG_variable, DW_AT_name("dj")
	.dwattr $C$DW$201, DW_AT_TI_symbol_name("dj")
	.dwattr $C$DW$201, DW_AT_type(*$C$DW$T$136)
	.dwattr $C$DW$201, DW_AT_location[DW_OP_reg0]
;* V9    assigned to c
$C$DW$202	.dwtag  DW_TAG_variable, DW_AT_name("c")
	.dwattr $C$DW$202, DW_AT_TI_symbol_name("c")
	.dwattr $C$DW$202, DW_AT_type(*$C$DW$T$19)
	.dwattr $C$DW$202, DW_AT_location[DW_OP_reg12]
;* A1    assigned to c
$C$DW$203	.dwtag  DW_TAG_variable, DW_AT_name("c")
	.dwattr $C$DW$203, DW_AT_TI_symbol_name("c")
	.dwattr $C$DW$203, DW_AT_type(*$C$DW$T$10)
	.dwattr $C$DW$203, DW_AT_location[DW_OP_reg0]
;* A3    assigned to $O$U8
	.dwcfi	cfa_offset, 0
        PUSH      {V1, V2, V3, V4, V5, LR} ; [DPU_3_PIPE] 
	.dwcfi	cfa_offset, 24
	.dwcfi	save_reg_to_mem, 14, -4
	.dwcfi	save_reg_to_mem, 8, -8
	.dwcfi	save_reg_to_mem, 7, -12
	.dwcfi	save_reg_to_mem, 6, -16
	.dwcfi	save_reg_to_mem, 5, -20
	.dwcfi	save_reg_to_mem, 4, -24
	.dwpsn	file "../utils/ff.c",line 1819,column 7,is_stmt,isa 1
        LDR       V5, [A2, #0]          ; [DPU_3_PIPE] |1819| 
	.dwpsn	file "../utils/ff.c",line 1819,column 18,is_stmt,isa 1
        LDRB      A3, [V5, #0]          ; [DPU_3_PIPE] |1819| 
        CMP       A3, #47               ; [DPU_3_PIPE] |1819| 
        BEQ       ||$C$L110||           ; [DPU_3_PIPE] |1819| 
        ; BRANCHCC OCCURS {||$C$L110||}  ; [] |1819| 
;* --------------------------------------------------------------------------*
||$C$L109||:    
        CMP       A3, #92               ; [DPU_3_PIPE] |1819| 
        BNE       ||$C$L111||           ; [DPU_3_PIPE] |1819| 
        ; BRANCHCC OCCURS {||$C$L111||}  ; [] |1819| 
;* --------------------------------------------------------------------------*
;*   BEGIN LOOP ||$C$L110||
;* --------------------------------------------------------------------------*
	.align	8
||$C$L110||:    
        LDRB      A3, [V5, #1]!         ; [DPU_3_PIPE] |1819| 
        CMP       A3, #47               ; [DPU_3_PIPE] |1819| 
        BNE       ||$C$L109||           ; [DPU_3_PIPE] |1819| 
        ; BRANCHCC OCCURS {||$C$L109||}  ; [] |1819| 
;* --------------------------------------------------------------------------*
        B         ||$C$L110||           ; [DPU_3_PIPE] |1819| 
        ; BRANCH OCCURS {||$C$L110||}    ; [] |1819| 
;* --------------------------------------------------------------------------*
	.align	8
||$C$L111||:    
	.dwpsn	file "../utils/ff.c",line 1820,column 2,is_stmt,isa 1
        LDR       A3, [A1, #24]         ; [DPU_3_PIPE] |1820| 
        MOVS      A4, #32               ; [DPU_3_PIPE] 
	.dwpsn	file "../utils/ff.c",line 1821,column 2,is_stmt,isa 1
        MOVS      V4, #11               ; [DPU_3_PIPE] |1821| 
	.dwpsn	file "../utils/ff.c",line 557,column 10,is_stmt,isa 1
        MOV       A1, A3                ; [DPU_3_PIPE] |557| 
;* --------------------------------------------------------------------------*
;*   BEGIN LOOP ||$C$L112||
;*
;*   Loop source line                : 559
;*   Loop closing brace source line  : 560
;*   Known Minimum Trip Count        : 1
;*   Known Maximum Trip Count        : 4294967295
;*   Known Max Trip Count Factor     : 1
;* --------------------------------------------------------------------------*
	.align	8
||$C$L112||:    
	.dwpsn	file "../utils/ff.c",line 559,column 2,is_stmt,isa 1
        SUBS      V4, V4, #1            ; [DPU_3_PIPE] |559| 
	.dwpsn	file "../utils/ff.c",line 560,column 3,is_stmt,isa 1
        STRB      A4, [A1], #1          ; [DPU_3_PIPE] |560| 
	.dwpsn	file "../utils/ff.c",line 559,column 2,is_stmt,isa 1
        BNE       ||$C$L112||           ; [DPU_3_PIPE] |559| 
        ; BRANCHCC OCCURS {||$C$L112||}  ; [] |559| 
;* --------------------------------------------------------------------------*
	.dwpsn	file "../utils/ff.c",line 1837,column 3,is_stmt,isa 1
        LDRB      V9, [V5, #0]          ; [DPU_3_PIPE] |1837| 
	.dwpsn	file "../utils/ff.c",line 1822,column 2,is_stmt,isa 1
        MOV       LR, #0                ; [DPU_3_PIPE] |1822| 
	.dwpsn	file "../utils/ff.c",line 1822,column 18,is_stmt,isa 1
        MOVS      A4, #8                ; [DPU_3_PIPE] |1822| 
	.dwpsn	file "../utils/ff.c",line 1822,column 2,is_stmt,isa 1
        MOV       A1, LR                ; [DPU_3_PIPE] |1822| 
	.dwpsn	file "../utils/ff.c",line 1838,column 42,is_stmt,isa 1
        CMP       V9, #33               ; [DPU_3_PIPE] |1838| 
        BLT       ||$C$L131||           ; [DPU_3_PIPE] |1838| 
        ; BRANCHCC OCCURS {||$C$L131||}  ; [] |1838| 
;* --------------------------------------------------------------------------*
        CMP       V9, #47               ; [DPU_3_PIPE] |1838| 
        BEQ       ||$C$L131||           ; [DPU_3_PIPE] |1838| 
        ; BRANCHCC OCCURS {||$C$L131||}  ; [] |1838| 
;* --------------------------------------------------------------------------*
        CMP       V9, #92               ; [DPU_3_PIPE] |1838| 
        BEQ       ||$C$L131||           ; [DPU_3_PIPE] |1838| 
        ; BRANCHCC OCCURS {||$C$L131||}  ; [] |1838| 
;* --------------------------------------------------------------------------*
	.dwpsn	file "../utils/ff.c",line 1839,column 3,is_stmt,isa 1
        CMP       V9, #46               ; [DPU_3_PIPE] |1839| 
	.dwpsn	file "../utils/ff.c",line 1837,column 3,is_stmt,isa 1
        MOV       V1, #1                ; [DPU_3_PIPE] |1837| 
	.dwpsn	file "../utils/ff.c",line 1839,column 3,is_stmt,isa 1
        BNE       ||$C$L115||           ; [DPU_3_PIPE] |1839| 
        ; BRANCHCC OCCURS {||$C$L115||}  ; [] |1839| 
;* --------------------------------------------------------------------------*
        ADD       V2, V5, V1            ; [DPU_3_PIPE] 
;* --------------------------------------------------------------------------*
||$C$L113||:    
	.dwpsn	file "../utils/ff.c",line 1842,column 4,is_stmt,isa 1
        LSL       V3, LR, #2            ; [DPU_3_PIPE] |1842| 
	.dwpsn	file "../utils/ff.c",line 1841,column 4,is_stmt,isa 1
        MOVS      A1, #8                ; [DPU_3_PIPE] |1841| 
	.dwpsn	file "../utils/ff.c",line 1841,column 11,is_stmt,isa 1
        MOVS      A4, #11               ; [DPU_3_PIPE] |1841| 
	.dwpsn	file "../utils/ff.c",line 1842,column 4,is_stmt,isa 1
        UXTB      LR, V3                ; [DPU_3_PIPE] |1842| 
	.dwpsn	file "../utils/ff.c",line 1842,column 13,is_stmt,isa 1
        B         ||$C$L127||           ; [DPU_3_PIPE] |1842| 
        ; BRANCH OCCURS {||$C$L127||}    ; [] |1842| 
;* --------------------------------------------------------------------------*
||$C$L114||:    
	.dwpsn	file "../utils/ff.c",line 1839,column 3,is_stmt,isa 1
        CMP       A4, A1                ; [DPU_3_PIPE] |1839| 
        BLS       ||$C$L133||           ; [DPU_3_PIPE] |1839| 
        ; BRANCHCC OCCURS {||$C$L133||}  ; [] |1839| 
;* --------------------------------------------------------------------------*
||$C$L115||:    
	.dwpsn	file "../utils/ff.c",line 1844,column 3,is_stmt,isa 1
        CMP       V9, #128              ; [DPU_3_PIPE] |1844| 
        BLT       ||$C$L120||           ; [DPU_3_PIPE] |1844| 
        ; BRANCHCC OCCURS {||$C$L120||}  ; [] |1844| 
;* --------------------------------------------------------------------------*
	.dwpsn	file "../utils/ff.c",line 1854,column 3,is_stmt,isa 1
        CMP       V9, #128              ; [DPU_3_PIPE] |1854| 
	.dwpsn	file "../utils/ff.c",line 1845,column 4,is_stmt,isa 1
        ORR       LR, LR, #3            ; [DPU_3_PIPE] |1845| 
	.dwpsn	file "../utils/ff.c",line 1854,column 3,is_stmt,isa 1
        BLE       ||$C$L119||           ; [DPU_3_PIPE] |1854| 
        ; BRANCHCC OCCURS {||$C$L119||}  ; [] |1854| 
;* --------------------------------------------------------------------------*
        CMP       V9, #160              ; [DPU_3_PIPE] |1854| 
        BLT       ||$C$L116||           ; [DPU_3_PIPE] |1854| 
        ; BRANCHCC OCCURS {||$C$L116||}  ; [] |1854| 
;* --------------------------------------------------------------------------*
        CMP       V9, #224              ; [DPU_3_PIPE] |1854| 
        BLT       ||$C$L118||           ; [DPU_3_PIPE] |1854| 
        ; BRANCHCC OCCURS {||$C$L118||}  ; [] |1854| 
;* --------------------------------------------------------------------------*
        CMP       V9, #253              ; [DPU_3_PIPE] |1854| 
        BGE       ||$C$L118||           ; [DPU_3_PIPE] |1854| 
        ; BRANCHCC OCCURS {||$C$L118||}  ; [] |1854| 
;* --------------------------------------------------------------------------*
||$C$L116||:    
	.dwpsn	file "../utils/ff.c",line 1855,column 4,is_stmt,isa 1
        ADD       V2, V5, V1            ; [DPU_3_PIPE] |1855| 
        LDRB      V3, [V2, #0]          ; [DPU_3_PIPE] |1855| 
        CMP       V3, #64               ; [DPU_3_PIPE] |1855| 
        BLT       ||$C$L133||           ; [DPU_3_PIPE] |1855| 
        ; BRANCHCC OCCURS {||$C$L133||}  ; [] |1855| 
;* --------------------------------------------------------------------------*
	.dwpsn	file "../utils/ff.c",line 1856,column 4,is_stmt,isa 1
        CMP       V3, #126              ; [DPU_3_PIPE] |1856| 
	.dwpsn	file "../utils/ff.c",line 1855,column 4,is_stmt,isa 1
        ADD       V2, V2, #1            ; [DPU_3_PIPE] |1855| 
        ADD       V1, V1, #1            ; [DPU_3_PIPE] |1855| 
	.dwpsn	file "../utils/ff.c",line 1856,column 4,is_stmt,isa 1
        BLE       ||$C$L117||           ; [DPU_3_PIPE] |1856| 
        ; BRANCHCC OCCURS {||$C$L117||}  ; [] |1856| 
;* --------------------------------------------------------------------------*
        CMP       V3, #128              ; [DPU_3_PIPE] |1856| 
        BLT       ||$C$L133||           ; [DPU_3_PIPE] |1856| 
        ; BRANCHCC OCCURS {||$C$L133||}  ; [] |1856| 
;* --------------------------------------------------------------------------*
        CMP       V3, #252              ; [DPU_3_PIPE] |1856| 
        BGT       ||$C$L133||           ; [DPU_3_PIPE] |1856| 
        ; BRANCHCC OCCURS {||$C$L133||}  ; [] |1856| 
;* --------------------------------------------------------------------------*
||$C$L117||:    
        SUBS      V4, A4, #1            ; [DPU_3_PIPE] |1856| 
        CMP       V4, A1                ; [DPU_3_PIPE] |1856| 
        BLS       ||$C$L133||           ; [DPU_3_PIPE] |1856| 
        ; BRANCHCC OCCURS {||$C$L133||}  ; [] |1856| 
;* --------------------------------------------------------------------------*
	.dwpsn	file "../utils/ff.c",line 1858,column 4,is_stmt,isa 1
        STRB      V9, [A3, +A1]         ; [DPU_3_PIPE] |1858| 
	.dwpsn	file "../utils/ff.c",line 1859,column 4,is_stmt,isa 1
        ADDS      A1, A1, #1            ; [DPU_3_PIPE] |1859| 
        STRB      V3, [A3, +A1]         ; [DPU_3_PIPE] |1859| 
        ADDS      A1, A1, #1            ; [DPU_3_PIPE] |1859| 
	.dwpsn	file "../utils/ff.c",line 1860,column 3,is_stmt,isa 1
        B         ||$C$L127||           ; [DPU_3_PIPE] |1860| 
        ; BRANCH OCCURS {||$C$L127||}    ; [] |1860| 
;* --------------------------------------------------------------------------*
	.align	8
||$C$L118||:    
	.dwpsn	file "../utils/ff.c",line 1861,column 4,is_stmt,isa 1
        MOV       V3, V9                ; [DPU_3_PIPE] |1861| 
        ADR       V2, $C$SL1            ; [DPU_3_PIPE] |1861| 
        B         ||$C$L122||           ; [DPU_3_PIPE] 
        ; BRANCH OCCURS {||$C$L122||}    ; [] 
;* --------------------------------------------------------------------------*
	.align	8
||$C$L119||:    
        ADR       V2, $C$SL1            ; [DPU_3_PIPE] |1861| 
        MOVS      V3, #128              ; [DPU_3_PIPE] |1861| 
	.dwpsn	file "../utils/ff.c",line 576,column 9,is_stmt,isa 1
        B         ||$C$L122||           ; [DPU_3_PIPE] |576| 
        ; BRANCH OCCURS {||$C$L122||}    ; [] |576| 
;* --------------------------------------------------------------------------*
	.align	8
||$C$L120||:    
	.dwpsn	file "../utils/ff.c",line 1861,column 4,is_stmt,isa 1
        MOV       V3, V9                ; [DPU_3_PIPE] |1861| 
        MOVS      V4, #34               ; [DPU_3_PIPE] 
        ADR       V2, $C$SL1            ; [DPU_3_PIPE] |1861| 
;* --------------------------------------------------------------------------*
||$C$L121||:    
	.dwpsn	file "../utils/ff.c",line 576,column 9,is_stmt,isa 1
        CMP       V3, V4                ; [DPU_3_PIPE] |576| 
        BEQ       ||$C$L123||           ; [DPU_3_PIPE] |576| 
        ; BRANCHCC OCCURS {||$C$L123||}  ; [] |576| 
;* --------------------------------------------------------------------------*
||$C$L122||:    
        LDRB      V4, [V2, #1]!         ; [DPU_3_PIPE] |576| 
        CMP       V4, #0                ; [DPU_3_PIPE] |576| 
        BNE       ||$C$L121||           ; [DPU_3_PIPE] |576| 
        ; BRANCHCC OCCURS {||$C$L121||}  ; [] |576| 
;* --------------------------------------------------------------------------*
        B         ||$C$L124||           ; [DPU_3_PIPE] |576| 
        ; BRANCH OCCURS {||$C$L124||}    ; [] |576| 
;* --------------------------------------------------------------------------*
	.align	8
||$C$L123||:    
	.dwpsn	file "../utils/ff.c",line 577,column 2,is_stmt,isa 1
        CMP       V4, #0                ; [DPU_3_PIPE] |577| 
        BNE       ||$C$L133||           ; [DPU_3_PIPE] |577| 
        ; BRANCHCC OCCURS {||$C$L133||}  ; [] |577| 
;* --------------------------------------------------------------------------*
||$C$L124||:    
	.dwpsn	file "../utils/ff.c",line 1863,column 4,is_stmt,isa 1
        CMP       V9, #64               ; [DPU_3_PIPE] |1863| 
        ADD       V2, V5, V1            ; [DPU_3_PIPE] 
        ADD       V3, A3, A1            ; [DPU_3_PIPE] 
        BLE       ||$C$L126||           ; [DPU_3_PIPE] |1863| 
        ; BRANCHCC OCCURS {||$C$L126||}  ; [] |1863| 
;* --------------------------------------------------------------------------*
        CMP       V9, #91               ; [DPU_3_PIPE] |1863| 
        BLT       ||$C$L125||           ; [DPU_3_PIPE] |1863| 
        ; BRANCHCC OCCURS {||$C$L125||}  ; [] |1863| 
;* --------------------------------------------------------------------------*
	.dwpsn	file "../utils/ff.c",line 1866,column 5,is_stmt,isa 1
        CMP       V9, #96               ; [DPU_3_PIPE] |1866| 
        BLE       ||$C$L126||           ; [DPU_3_PIPE] |1866| 
        ; BRANCHCC OCCURS {||$C$L126||}  ; [] |1866| 
;* --------------------------------------------------------------------------*
        CMP       V9, #123              ; [DPU_3_PIPE] |1866| 
        BGE       ||$C$L126||           ; [DPU_3_PIPE] |1866| 
        ; BRANCHCC OCCURS {||$C$L126||}  ; [] |1866| 
;* --------------------------------------------------------------------------*
	.dwpsn	file "../utils/ff.c",line 1867,column 14,is_stmt,isa 1
        SUB       V9, V9, #32           ; [DPU_3_PIPE] |1867| 
	.dwpsn	file "../utils/ff.c",line 1867,column 6,is_stmt,isa 1
        ORR       LR, LR, #1            ; [DPU_3_PIPE] |1867| 
	.dwpsn	file "../utils/ff.c",line 1867,column 14,is_stmt,isa 1
        UXTB      V9, V9                ; [DPU_3_PIPE] |1867| 
        B         ||$C$L126||           ; [DPU_3_PIPE] |1867| 
        ; BRANCH OCCURS {||$C$L126||}    ; [] |1867| 
;* --------------------------------------------------------------------------*
||$C$L125||:    
	.dwpsn	file "../utils/ff.c",line 1864,column 5,is_stmt,isa 1
        ORR       LR, LR, #2            ; [DPU_3_PIPE] |1864| 
;* --------------------------------------------------------------------------*
||$C$L126||:    
	.dwpsn	file "../utils/ff.c",line 1870,column 4,is_stmt,isa 1
        STRB      V9, [V3, #0]          ; [DPU_3_PIPE] |1870| 
        ADDS      A1, A1, #1            ; [DPU_3_PIPE] |1870| 
;* --------------------------------------------------------------------------*
||$C$L127||:    
	.dwpsn	file "../utils/ff.c",line 1837,column 3,is_stmt,isa 1
        LDRB      V9, [V2], #1          ; [DPU_3_PIPE] |1837| 
        CMP       V9, #33               ; [DPU_3_PIPE] |1837| 
        BLT       ||$C$L130||           ; [DPU_3_PIPE] |1837| 
        ; BRANCHCC OCCURS {||$C$L130||}  ; [] |1837| 
;* --------------------------------------------------------------------------*
	.dwpsn	file "../utils/ff.c",line 1838,column 42,is_stmt,isa 1
        CMP       V9, #47               ; [DPU_3_PIPE] |1838| 
        BEQ       ||$C$L129||           ; [DPU_3_PIPE] |1838| 
        ; BRANCHCC OCCURS {||$C$L129||}  ; [] |1838| 
;* --------------------------------------------------------------------------*
        CMP       V9, #92               ; [DPU_3_PIPE] |1838| 
        BEQ       ||$C$L128||           ; [DPU_3_PIPE] |1838| 
        ; BRANCHCC OCCURS {||$C$L128||}  ; [] |1838| 
;* --------------------------------------------------------------------------*
	.dwpsn	file "../utils/ff.c",line 1839,column 3,is_stmt,isa 1
        CMP       V9, #46               ; [DPU_3_PIPE] |1839| 
	.dwpsn	file "../utils/ff.c",line 1837,column 3,is_stmt,isa 1
        ADD       V1, V1, #1            ; [DPU_3_PIPE] |1837| 
	.dwpsn	file "../utils/ff.c",line 1839,column 3,is_stmt,isa 1
        BNE       ||$C$L114||           ; [DPU_3_PIPE] |1839| 
        ; BRANCHCC OCCURS {||$C$L114||}  ; [] |1839| 
;* --------------------------------------------------------------------------*
	.dwpsn	file "../utils/ff.c",line 1840,column 4,is_stmt,isa 1
        CMP       A4, #8                ; [DPU_3_PIPE] |1840| 
        BEQ       ||$C$L113||           ; [DPU_3_PIPE] |1840| 
        ; BRANCHCC OCCURS {||$C$L113||}  ; [] |1840| 
;* --------------------------------------------------------------------------*
        B         ||$C$L133||           ; [DPU_3_PIPE] |1840| 
        ; BRANCH OCCURS {||$C$L133||}    ; [] |1840| 
;* --------------------------------------------------------------------------*
||$C$L128||:    
	.dwpsn	file "../utils/ff.c",line 1873,column 2,is_stmt,isa 1
        STR       V2, [A2, #0]          ; [DPU_3_PIPE] |1873| 
	.dwpsn	file "../utils/ff.c",line 1876,column 2,is_stmt,isa 1
        B         ||$C$L132||           ; [DPU_3_PIPE] |1876| 
        ; BRANCH OCCURS {||$C$L132||}    ; [] |1876| 
;* --------------------------------------------------------------------------*
||$C$L129||:    
	.dwpsn	file "../utils/ff.c",line 1873,column 2,is_stmt,isa 1
        STR       V2, [A2, #0]          ; [DPU_3_PIPE] |1873| 
	.dwpsn	file "../utils/ff.c",line 1876,column 2,is_stmt,isa 1
        B         ||$C$L132||           ; [DPU_3_PIPE] |1876| 
        ; BRANCH OCCURS {||$C$L132||}    ; [] |1876| 
;* --------------------------------------------------------------------------*
	.align	8
||$C$L130||:    
	.dwpsn	file "../utils/ff.c",line 1873,column 2,is_stmt,isa 1
        STR       V2, [A2, #0]          ; [DPU_3_PIPE] |1873| 
        CBZ       A1, ||$C$L133||       ; [] 
	.dwpsn	file "../utils/ff.c",line 1876,column 2,is_stmt,isa 1
        ; BRANCHCC OCCURS {||$C$L133||}  ; [] |1876| 
;* --------------------------------------------------------------------------*
	.dwpsn	file "../utils/ff.c",line 1877,column 2,is_stmt,isa 1
        LDRB      A2, [A3, #0]          ; [DPU_3_PIPE] |1877| 
	.dwpsn	file "../utils/ff.c",line 1874,column 2,is_stmt,isa 1
        MOVS      A1, #4                ; [DPU_3_PIPE] |1874| 
	.dwpsn	file "../utils/ff.c",line 1877,column 2,is_stmt,isa 1
        CMP       A2, #229              ; [DPU_3_PIPE] |1877| 
        BEQ       ||$C$L135||           ; [DPU_3_PIPE] |1877| 
        ; BRANCHCC OCCURS {||$C$L135||}  ; [] |1877| 
;* --------------------------------------------------------------------------*
        B         ||$C$L136||           ; [DPU_3_PIPE] |1877| 
        ; BRANCH OCCURS {||$C$L136||}    ; [] |1877| 
;* --------------------------------------------------------------------------*
	.align	8
||$C$L131||:    
	.dwpsn	file "../utils/ff.c",line 1873,column 2,is_stmt,isa 1
        ADD       V5, V5, #1            ; [DPU_3_PIPE] |1873| 
	.dwpsn	file "../utils/ff.c",line 1874,column 2,is_stmt,isa 1
        CMP       V9, #33               ; [DPU_3_PIPE] |1874| 
	.dwpsn	file "../utils/ff.c",line 1873,column 2,is_stmt,isa 1
        STR       V5, [A2, #0]          ; [DPU_3_PIPE] |1873| 
	.dwpsn	file "../utils/ff.c",line 1874,column 2,is_stmt,isa 1
        BLT       ||$C$L133||           ; [DPU_3_PIPE] |1874| 
        ; BRANCHCC OCCURS {||$C$L133||}  ; [] |1874| 
;* --------------------------------------------------------------------------*
||$C$L132||:    
        CBNZ      A1, ||$C$L134||       ; [] 
	.dwpsn	file "../utils/ff.c",line 1876,column 2,is_stmt,isa 1
        ; BRANCHCC OCCURS {||$C$L134||}  ; [] |1876| 
;* --------------------------------------------------------------------------*
||$C$L133||:    
	.dwcfi	remember_state
	.dwpsn	file "../utils/ff.c",line 1876,column 10,is_stmt,isa 1
        MOVS      A1, #6                ; [DPU_3_PIPE] |1876| 
$C$DW$204	.dwtag  DW_TAG_TI_branch
	.dwattr $C$DW$204, DW_AT_low_pc(0x00)
	.dwattr $C$DW$204, DW_AT_TI_return
        POP       {V1, V2, V3, V4, V5, PC} ; [DPU_3_PIPE] 
	.dwcfi	cfa_offset, 0
        ; BRANCH OCCURS                  ; [] 
	.dwcfi	restore_reg, 8
	.dwcfi	restore_reg, 7
	.dwcfi	restore_reg, 6
	.dwcfi	restore_reg, 5
	.dwcfi	restore_reg, 4
	.dwcfi	restore_state
;* --------------------------------------------------------------------------*
	.align	8
||$C$L134||:    
	.dwpsn	file "../utils/ff.c",line 1877,column 2,is_stmt,isa 1
        LDRB      A2, [A3, #0]          ; [DPU_3_PIPE] |1877| 
	.dwpsn	file "../utils/ff.c",line 1874,column 2,is_stmt,isa 1
        MOVS      A1, #0                ; [DPU_3_PIPE] |1874| 
	.dwpsn	file "../utils/ff.c",line 1877,column 2,is_stmt,isa 1
        CMP       A2, #229              ; [DPU_3_PIPE] |1877| 
        BNE       ||$C$L136||           ; [DPU_3_PIPE] |1877| 
        ; BRANCHCC OCCURS {||$C$L136||}  ; [] |1877| 
;* --------------------------------------------------------------------------*
||$C$L135||:    
	.dwpsn	file "../utils/ff.c",line 1877,column 21,is_stmt,isa 1
        MOVS      A2, #5                ; [DPU_3_PIPE] |1877| 
        STRB      A2, [A3, #0]          ; [DPU_3_PIPE] |1877| 
;* --------------------------------------------------------------------------*
||$C$L136||:    
	.dwpsn	file "../utils/ff.c",line 1879,column 2,is_stmt,isa 1
        CMP       A4, #8                ; [DPU_3_PIPE] |1879| 
        ITT       EQ                    ; [DPU_3_PIPE] 
	.dwpsn	file "../utils/ff.c",line 1879,column 15,is_stmt,isa 1
        LSLEQ     A2, LR, #2            ; [DPU_3_PIPE] |1879| 
        UXTBEQ    LR, A2                ; [DPU_3_PIPE] |1879| 
	.dwpsn	file "../utils/ff.c",line 1880,column 2,is_stmt,isa 1
        AND       A2, LR, #3            ; [DPU_3_PIPE] |1880| 
        CMP       A2, #1                ; [DPU_3_PIPE] |1880| 
        IT        EQ                    ; [DPU_3_PIPE] 
	.dwpsn	file "../utils/ff.c",line 1880,column 26,is_stmt,isa 1
        ORREQ     A1, A1, #16           ; [DPU_3_PIPE] |1880| 
	.dwpsn	file "../utils/ff.c",line 1881,column 2,is_stmt,isa 1
        AND       LR, LR, #12           ; [DPU_3_PIPE] |1881| 
        CMP       LR, #4                ; [DPU_3_PIPE] |1881| 
        IT        EQ                    ; [DPU_3_PIPE] 
	.dwpsn	file "../utils/ff.c",line 1881,column 26,is_stmt,isa 1
        ORREQ     A1, A1, #8            ; [DPU_3_PIPE] |1881| 
	.dwpsn	file "../utils/ff.c",line 1883,column 2,is_stmt,isa 1
        STRB      A1, [A3, #11]         ; [DPU_3_PIPE] |1883| 
	.dwpsn	file "../utils/ff.c",line 1885,column 2,is_stmt,isa 1
        MOVS      A1, #0                ; [DPU_3_PIPE] |1885| 
;* --------------------------------------------------------------------------*
$C$DW$205	.dwtag  DW_TAG_TI_branch
	.dwattr $C$DW$205, DW_AT_low_pc(0x00)
	.dwattr $C$DW$205, DW_AT_TI_return
        POP       {V1, V2, V3, V4, V5, PC} ; [DPU_3_PIPE] 
	.dwcfi	cfa_offset, 0
        ; BRANCH OCCURS                  ; [] 
	.dwattr $C$DW$186, DW_AT_TI_end_file("../utils/ff.c")
	.dwattr $C$DW$186, DW_AT_TI_end_line(0x75f)
	.dwattr $C$DW$186, DW_AT_TI_end_column(0x01)
	.dwendentry
	.dwendtag $C$DW$186

	.sect	".text"
	.align	8
	.clink
	.thumbfunc dir_sdi
	.thumb

$C$DW$206	.dwtag  DW_TAG_subprogram, DW_AT_name("dir_sdi")
	.dwattr $C$DW$206, DW_AT_low_pc(dir_sdi)
	.dwattr $C$DW$206, DW_AT_high_pc(0x00)
	.dwattr $C$DW$206, DW_AT_TI_symbol_name("dir_sdi")
	.dwattr $C$DW$206, DW_AT_type(*$C$DW$T$53)
	.dwattr $C$DW$206, DW_AT_TI_begin_file("../utils/ff.c")
	.dwattr $C$DW$206, DW_AT_TI_begin_line(0x440)
	.dwattr $C$DW$206, DW_AT_TI_begin_column(0x09)
	.dwattr $C$DW$206, DW_AT_decl_file("../utils/ff.c")
	.dwattr $C$DW$206, DW_AT_decl_line(0x440)
	.dwattr $C$DW$206, DW_AT_decl_column(0x09)
	.dwattr $C$DW$206, DW_AT_TI_max_frame_size(0x10)
	.dwpsn	file "../utils/ff.c",line 1092,column 1,is_stmt,address dir_sdi,isa 1

	.dwfde $C$DW$CIE, dir_sdi
$C$DW$207	.dwtag  DW_TAG_formal_parameter, DW_AT_name("dj")
	.dwattr $C$DW$207, DW_AT_TI_symbol_name("dj")
	.dwattr $C$DW$207, DW_AT_type(*$C$DW$T$58)
	.dwattr $C$DW$207, DW_AT_location[DW_OP_reg0]
$C$DW$208	.dwtag  DW_TAG_formal_parameter, DW_AT_name("idx")
	.dwattr $C$DW$208, DW_AT_TI_symbol_name("idx")
	.dwattr $C$DW$208, DW_AT_type(*$C$DW$T$20)
	.dwattr $C$DW$208, DW_AT_location[DW_OP_reg1]

;*****************************************************************************
;* FUNCTION NAME: dir_sdi                                                    *
;*                                                                           *
;*   Regs Modified     : A1,A2,A3,A4,V1,V5,V6,V9,SP,LR,SR,D0,D0_hi,D1,D1_hi, *
;*                           D2,D2_hi,D3,D3_hi,D4,D4_hi,D5,D5_hi,D6,D6_hi,D7,*
;*                           D7_hi,FPEXC,FPSCR                               *
;*   Regs Used         : A1,A2,A3,A4,V1,V5,V6,V9,SP,LR,SR,D0,D0_hi,D1,D1_hi, *
;*                           D2,D2_hi,D3,D3_hi,D4,D4_hi,D5,D5_hi,D6,D6_hi,D7,*
;*                           D7_hi,FPEXC,FPSCR                               *
;*   Local Frame Size  : 0 Args + 0 Auto + 16 Save = 16 byte                 *
;*****************************************************************************
dir_sdi:
;* --------------------------------------------------------------------------*
;* A2    assigned to $O$C2
;* A1    assigned to $O$v1
;* V6    assigned to ic
$C$DW$209	.dwtag  DW_TAG_variable, DW_AT_name("ic")
	.dwattr $C$DW$209, DW_AT_TI_symbol_name("ic")
	.dwattr $C$DW$209, DW_AT_type(*$C$DW$T$10)
	.dwattr $C$DW$209, DW_AT_location[DW_OP_reg9]
;* A2    assigned to clst
$C$DW$210	.dwtag  DW_TAG_variable, DW_AT_name("clst")
	.dwattr $C$DW$210, DW_AT_TI_symbol_name("clst")
	.dwattr $C$DW$210, DW_AT_type(*$C$DW$T$21)
	.dwattr $C$DW$210, DW_AT_location[DW_OP_reg1]
;* V5    assigned to idx
$C$DW$211	.dwtag  DW_TAG_variable, DW_AT_name("idx")
	.dwattr $C$DW$211, DW_AT_TI_symbol_name("idx")
	.dwattr $C$DW$211, DW_AT_type(*$C$DW$T$20)
	.dwattr $C$DW$211, DW_AT_location[DW_OP_reg8]
;* V1    assigned to dj
$C$DW$212	.dwtag  DW_TAG_variable, DW_AT_name("dj")
	.dwattr $C$DW$212, DW_AT_TI_symbol_name("dj")
	.dwattr $C$DW$212, DW_AT_type(*$C$DW$T$136)
	.dwattr $C$DW$212, DW_AT_location[DW_OP_reg4]
;* A2    assigned to $O$R1
	.dwcfi	cfa_offset, 0
        PUSH      {V1, V5, V6, LR}      ; [DPU_3_PIPE] 
	.dwcfi	cfa_offset, 16
	.dwcfi	save_reg_to_mem, 14, -4
	.dwcfi	save_reg_to_mem, 9, -8
	.dwcfi	save_reg_to_mem, 8, -12
	.dwcfi	save_reg_to_mem, 4, -16
        MOV       V1, A1                ; [DPU_3_PIPE] |1092| 
        MOV       V5, A2                ; [DPU_3_PIPE] |1092| 
	.dwpsn	file "../utils/ff.c",line 1098,column 2,is_stmt,isa 1
        LDR       A2, [V1, #8]          ; [DPU_3_PIPE] |1098| 
	.dwpsn	file "../utils/ff.c",line 1097,column 2,is_stmt,isa 1
        STRH      V5, [V1, #6]          ; [DPU_3_PIPE] |1097| 
	.dwpsn	file "../utils/ff.c",line 1098,column 2,is_stmt,isa 1
        CMP       A2, #1                ; [DPU_3_PIPE] |1098| 
        BEQ       ||$C$L139||           ; [DPU_3_PIPE] |1098| 
        ; BRANCHCC OCCURS {||$C$L139||}  ; [] |1098| 
;* --------------------------------------------------------------------------*
	.dwpsn	file "../utils/ff.c",line 1099,column 2,is_stmt,isa 1
        LDR       A1, [V1, #0]          ; [DPU_3_PIPE] |1099| 
        LDR       A3, [A1, #24]         ; [DPU_3_PIPE] |1099| 
        CMP       A3, A2                ; [DPU_3_PIPE] |1099| 
        BLS       ||$C$L139||           ; [DPU_3_PIPE] |1099| 
        ; BRANCHCC OCCURS {||$C$L139||}  ; [] |1099| 
;* --------------------------------------------------------------------------*
        CBNZ      A2, ||$C$L137||       ; [] 
	.dwpsn	file "../utils/ff.c",line 1101,column 2,is_stmt,isa 1
        ; BRANCHCC OCCURS {||$C$L137||}  ; [] |1101| 
;* --------------------------------------------------------------------------*
        LDRB      A3, [A1, #0]          ; [DPU_3_PIPE] |1101| 
        CMP       A3, #3                ; [DPU_3_PIPE] |1101| 
        IT        EQ                    ; [DPU_3_PIPE] 
	.dwpsn	file "../utils/ff.c",line 1102,column 3,is_stmt,isa 1
        LDREQ     A2, [A1, #40]         ; [DPU_3_PIPE] |1102| 
        CBNZ      A2, ||$C$L137||       ; [] 
	.dwpsn	file "../utils/ff.c",line 1104,column 2,is_stmt,isa 1
        ; BRANCHCC OCCURS {||$C$L137||}  ; [] |1104| 
;* --------------------------------------------------------------------------*
	.dwpsn	file "../utils/ff.c",line 1105,column 3,is_stmt,isa 1
        STR       A2, [V1, #12]         ; [DPU_3_PIPE] |1105| 
	.dwpsn	file "../utils/ff.c",line 1106,column 3,is_stmt,isa 1
        LDRH      A2, [A1, #8]          ; [DPU_3_PIPE] |1106| 
        CMP       A2, V5                ; [DPU_3_PIPE] |1106| 
        BLE       ||$C$L139||           ; [DPU_3_PIPE] |1106| 
        ; BRANCHCC OCCURS {||$C$L139||}  ; [] |1106| 
;* --------------------------------------------------------------------------*
	.dwpsn	file "../utils/ff.c",line 1108,column 3,is_stmt,isa 1
        LDR       A2, [A1, #40]         ; [DPU_3_PIPE] |1108| 
        ADD       A2, A2, V5, ASR #4    ; [DPU_3_PIPE] |1108| 
        STR       A2, [V1, #16]         ; [DPU_3_PIPE] |1108| 
	.dwpsn	file "../utils/ff.c",line 1109,column 2,is_stmt,isa 1
        B         ||$C$L144||           ; [DPU_3_PIPE] |1109| 
        ; BRANCH OCCURS {||$C$L144||}    ; [] |1109| 
;* --------------------------------------------------------------------------*
	.align	8
||$C$L137||:    
	.dwpsn	file "../utils/ff.c",line 1111,column 3,is_stmt,isa 1
        LDRB      A3, [A1, #2]          ; [DPU_3_PIPE] |1111| 
        LSL       V6, A3, #4            ; [DPU_3_PIPE] |1111| 
	.dwpsn	file "../utils/ff.c",line 1112,column 10,is_stmt,isa 1
        CMP       V6, V5                ; [DPU_3_PIPE] |1112| 
        BGT       ||$C$L141||           ; [DPU_3_PIPE] |1112| 
        ; BRANCHCC OCCURS {||$C$L141||}  ; [] |1112| 
;* --------------------------------------------------------------------------*
;*   BEGIN LOOP ||$C$L138||
;*
;*   Loop source line                : 1112
;*   Loop closing brace source line  : 1118
;*   Known Minimum Trip Count        : 1
;*   Known Maximum Trip Count        : 4294967295
;*   Known Max Trip Count Factor     : 1
;* --------------------------------------------------------------------------*
	.align	8
||$C$L138||:    
	.dwpsn	file "../utils/ff.c",line 1113,column 4,is_stmt,isa 1
$C$DW$213	.dwtag  DW_TAG_TI_branch
	.dwattr $C$DW$213, DW_AT_low_pc(0x00)
	.dwattr $C$DW$213, DW_AT_name("get_fat")
	.dwattr $C$DW$213, DW_AT_TI_call
        BL        get_fat               ; [DPU_3_PIPE] |1113| 
        ; CALL OCCURS {get_fat }         ; [] |1113| 
        MOV       A2, A1                ; [DPU_3_PIPE] |1113| 
        CMP       A2, #-1               ; [DPU_3_PIPE] |1113| 
        IT        EQ                    ; [DPU_3_PIPE] 
	.dwpsn	file "../utils/ff.c",line 1114,column 28,is_stmt,isa 1
        MOVEQ     A2, #1                ; [DPU_3_PIPE] |1114| 
        BEQ       ||$C$L145||           ; [DPU_3_PIPE] |1114| 
        ; BRANCHCC OCCURS {||$C$L145||}  ; [] |1114| 
;* --------------------------------------------------------------------------*
	.dwpsn	file "../utils/ff.c",line 1115,column 4,is_stmt,isa 1
        CMP       A2, #2                ; [DPU_3_PIPE] |1115| 
        BCC       ||$C$L139||           ; [DPU_3_PIPE] |1115| 
        ; BRANCHCC OCCURS {||$C$L139||}  ; [] |1115| 
;* --------------------------------------------------------------------------*
        LDR       A1, [V1, #0]          ; [DPU_3_PIPE] |1115| 
        LDR       A3, [A1, #24]         ; [DPU_3_PIPE] |1115| 
        CMP       A3, A2                ; [DPU_3_PIPE] |1115| 
        BHI       ||$C$L140||           ; [DPU_3_PIPE] |1115| 
        ; BRANCHCC OCCURS {||$C$L140||}  ; [] |1115| 
;* --------------------------------------------------------------------------*
||$C$L139||:    
	.dwpsn	file "../utils/ff.c",line 1116,column 5,is_stmt,isa 1
        MOVS      A2, #2                ; [DPU_3_PIPE] |1116| 
        B         ||$C$L145||           ; [DPU_3_PIPE] |1116| 
        ; BRANCH OCCURS {||$C$L145||}    ; [] |1116| 
;* --------------------------------------------------------------------------*
	.align	8
||$C$L140||:    
	.dwpsn	file "../utils/ff.c",line 1117,column 4,is_stmt,isa 1
        SUB       V5, V5, V6            ; [DPU_3_PIPE] |1117| 
        UXTH      V5, V5                ; [DPU_3_PIPE] |1117| 
	.dwpsn	file "../utils/ff.c",line 1112,column 10,is_stmt,isa 1
        CMP       V6, V5                ; [DPU_3_PIPE] |1112| 
        BLE       ||$C$L138||           ; [DPU_3_PIPE] |1112| 
        ; BRANCHCC OCCURS {||$C$L138||}  ; [] |1112| 
;* --------------------------------------------------------------------------*
||$C$L141||:    
	.dwpsn	file "../utils/ff.c",line 1119,column 3,is_stmt,isa 1
        STR       A2, [V1, #12]         ; [DPU_3_PIPE] |1119| 
	.dwpsn	file "../utils/ff.c",line 830,column 2,is_stmt,isa 1
        LDR       V9, [A1, #24]         ; [DPU_3_PIPE] |830| 
        SUBS      A2, A2, #2            ; [DPU_3_PIPE] |830| 
        SUB       V9, V9, #2            ; [DPU_3_PIPE] |830| 
        CMP       V9, A2                ; [DPU_3_PIPE] |830| 
        BLS       ||$C$L142||           ; [DPU_3_PIPE] |830| 
        ; BRANCHCC OCCURS {||$C$L142||}  ; [] |830| 
;* --------------------------------------------------------------------------*
	.dwpsn	file "../utils/ff.c",line 831,column 2,is_stmt,isa 1
        LDRB      A4, [A1, #2]          ; [DPU_3_PIPE] |831| 
        LDR       A3, [A1, #44]         ; [DPU_3_PIPE] |831| 
        MLA       A2, A2, A4, A3        ; [DPU_3_PIPE] |831| 
        B         ||$C$L143||           ; [DPU_3_PIPE] |831| 
        ; BRANCH OCCURS {||$C$L143||}    ; [] |831| 
;* --------------------------------------------------------------------------*
||$C$L142||:    
	.dwpsn	file "../utils/ff.c",line 830,column 34,is_stmt,isa 1
        MOVS      A2, #0                ; [DPU_3_PIPE] |830| 
;* --------------------------------------------------------------------------*
||$C$L143||:    
	.dwpsn	file "../utils/ff.c",line 1120,column 3,is_stmt,isa 1
        ADD       A2, A2, V5, ASR #4    ; [DPU_3_PIPE] |1120| 
        STR       A2, [V1, #16]         ; [DPU_3_PIPE] |1120| 
;* --------------------------------------------------------------------------*
||$C$L144||:    
	.dwpsn	file "../utils/ff.c",line 1123,column 2,is_stmt,isa 1
        LSL       A2, V5, #5            ; [DPU_3_PIPE] |1123| 
        AND       A2, A2, #480          ; [DPU_3_PIPE] |1123| 
        ADDS      A1, A1, A2            ; [DPU_3_PIPE] |1123| 
        ADDS      A1, A1, #52           ; [DPU_3_PIPE] |1123| 
	.dwpsn	file "../utils/ff.c",line 1125,column 2,is_stmt,isa 1
        MOVS      A2, #0                ; [DPU_3_PIPE] |1125| 
	.dwpsn	file "../utils/ff.c",line 1123,column 2,is_stmt,isa 1
        STR       A1, [V1, #20]         ; [DPU_3_PIPE] |1123| 
;* --------------------------------------------------------------------------*
||$C$L145||:    
	.dwpsn	file "../utils/ff.c",line 1125,column 2,is_stmt,isa 1
        MOV       A1, A2                ; [DPU_3_PIPE] |1125| 
$C$DW$214	.dwtag  DW_TAG_TI_branch
	.dwattr $C$DW$214, DW_AT_low_pc(0x00)
	.dwattr $C$DW$214, DW_AT_TI_return
        POP       {V1, V5, V6, PC}      ; [DPU_3_PIPE] 
	.dwcfi	cfa_offset, 0
        ; BRANCH OCCURS                  ; [] 
	.dwattr $C$DW$206, DW_AT_TI_end_file("../utils/ff.c")
	.dwattr $C$DW$206, DW_AT_TI_end_line(0x466)
	.dwattr $C$DW$206, DW_AT_TI_end_column(0x01)
	.dwendentry
	.dwendtag $C$DW$206

;******************************************************************************
;* STRINGS                                                                    *
;******************************************************************************
	.sect	".text"
	.align	4
||$C$SL1||:	.string	34,"*+,:;<=>?[]|",127,0
	.sect	".text"
	.align	8
	.clink
	.thumbfunc dir_next
	.thumb

$C$DW$215	.dwtag  DW_TAG_subprogram, DW_AT_name("dir_next")
	.dwattr $C$DW$215, DW_AT_low_pc(dir_next)
	.dwattr $C$DW$215, DW_AT_high_pc(0x00)
	.dwattr $C$DW$215, DW_AT_TI_symbol_name("dir_next")
	.dwattr $C$DW$215, DW_AT_type(*$C$DW$T$53)
	.dwattr $C$DW$215, DW_AT_TI_begin_file("../utils/ff.c")
	.dwattr $C$DW$215, DW_AT_TI_begin_line(0x470)
	.dwattr $C$DW$215, DW_AT_TI_begin_column(0x09)
	.dwattr $C$DW$215, DW_AT_decl_file("../utils/ff.c")
	.dwattr $C$DW$215, DW_AT_decl_line(0x470)
	.dwattr $C$DW$215, DW_AT_decl_column(0x09)
	.dwattr $C$DW$215, DW_AT_TI_max_frame_size(0x30)
	.dwpsn	file "../utils/ff.c",line 1140,column 1,is_stmt,address dir_next,isa 1

	.dwfde $C$DW$CIE, dir_next
$C$DW$216	.dwtag  DW_TAG_formal_parameter, DW_AT_name("dj")
	.dwattr $C$DW$216, DW_AT_TI_symbol_name("dj")
	.dwattr $C$DW$216, DW_AT_type(*$C$DW$T$58)
	.dwattr $C$DW$216, DW_AT_location[DW_OP_reg0]
$C$DW$217	.dwtag  DW_TAG_formal_parameter, DW_AT_name("stretch")
	.dwattr $C$DW$217, DW_AT_TI_symbol_name("stretch")
	.dwattr $C$DW$217, DW_AT_type(*$C$DW$T$10)
	.dwattr $C$DW$217, DW_AT_location[DW_OP_reg1]

;*****************************************************************************
;* FUNCTION NAME: dir_next                                                   *
;*                                                                           *
;*   Regs Modified     : A1,A2,A3,A4,V1,V2,V3,V4,V5,V6,V7,V8,V9,SP,LR,SR,D0, *
;*                           D0_hi,D1,D1_hi,D2,D2_hi,D3,D3_hi,D4,D4_hi,D5,   *
;*                           D5_hi,D6,D6_hi,D7,D7_hi,FPEXC,FPSCR             *
;*   Regs Used         : A1,A2,A3,A4,V1,V2,V3,V4,V5,V6,V7,V8,V9,SP,LR,SR,D0, *
;*                           D0_hi,D1,D1_hi,D2,D2_hi,D3,D3_hi,D4,D4_hi,D5,   *
;*                           D5_hi,D6,D6_hi,D7,D7_hi,FPEXC,FPSCR             *
;*   Local Frame Size  : 0 Args + 8 Auto + 36 Save = 44 byte                 *
;*****************************************************************************
dir_next:
;* --------------------------------------------------------------------------*
;* V3    assigned to $O$C3
;* A1    assigned to $O$C4
;* V4    assigned to $O$C5
;* A1    assigned to $O$C6
;* A2    assigned to $O$C7
;* V5    assigned to $O$C8
;* A2    assigned to $O$C9
;* A2    assigned to $O$C10
;* A3    assigned to $O$C11
;* A1    assigned to $O$C12
;* A1    assigned to $O$C13
;* A1    assigned to $O$C14
;* V2    assigned to $O$K88
;* V1    assigned to $O$U117
;* V4    assigned to $O$L2
;* A1    assigned to cnt
$C$DW$218	.dwtag  DW_TAG_variable, DW_AT_name("cnt")
	.dwattr $C$DW$218, DW_AT_TI_symbol_name("cnt")
	.dwattr $C$DW$218, DW_AT_type(*$C$DW$T$61)
	.dwattr $C$DW$218, DW_AT_location[DW_OP_reg0]
;* A2    assigned to d
$C$DW$219	.dwtag  DW_TAG_variable, DW_AT_name("d")
	.dwattr $C$DW$219, DW_AT_TI_symbol_name("d")
	.dwattr $C$DW$219, DW_AT_type(*$C$DW$T$26)
	.dwattr $C$DW$219, DW_AT_location[DW_OP_reg1]
;* V7    assigned to fs
$C$DW$220	.dwtag  DW_TAG_variable, DW_AT_name("fs")
	.dwattr $C$DW$220, DW_AT_TI_symbol_name("fs")
	.dwattr $C$DW$220, DW_AT_type(*$C$DW$T$25)
	.dwattr $C$DW$220, DW_AT_location[DW_OP_reg10]
;* V5    assigned to wsect
$C$DW$221	.dwtag  DW_TAG_variable, DW_AT_name("wsect")
	.dwattr $C$DW$221, DW_AT_TI_symbol_name("wsect")
	.dwattr $C$DW$221, DW_AT_type(*$C$DW$T$21)
	.dwattr $C$DW$221, DW_AT_location[DW_OP_reg8]
;* V6    assigned to c
$C$DW$222	.dwtag  DW_TAG_variable, DW_AT_name("c")
	.dwattr $C$DW$222, DW_AT_TI_symbol_name("c")
	.dwattr $C$DW$222, DW_AT_type(*$C$DW$T$19)
	.dwattr $C$DW$222, DW_AT_location[DW_OP_reg9]
$C$DW$223	.dwtag  DW_TAG_variable, DW_AT_name("i")
	.dwattr $C$DW$223, DW_AT_TI_symbol_name("i")
	.dwattr $C$DW$223, DW_AT_type(*$C$DW$T$10)
	.dwattr $C$DW$223, DW_AT_location[DW_OP_breg13 0]
;* V3    assigned to clst
$C$DW$224	.dwtag  DW_TAG_variable, DW_AT_name("clst")
	.dwattr $C$DW$224, DW_AT_TI_symbol_name("clst")
	.dwattr $C$DW$224, DW_AT_type(*$C$DW$T$21)
	.dwattr $C$DW$224, DW_AT_location[DW_OP_reg6]
;* V4    assigned to stretch
$C$DW$225	.dwtag  DW_TAG_variable, DW_AT_name("stretch")
	.dwattr $C$DW$225, DW_AT_TI_symbol_name("stretch")
	.dwattr $C$DW$225, DW_AT_type(*$C$DW$T$198)
	.dwattr $C$DW$225, DW_AT_location[DW_OP_reg7]
;* V8    assigned to dj
$C$DW$226	.dwtag  DW_TAG_variable, DW_AT_name("dj")
	.dwattr $C$DW$226, DW_AT_TI_symbol_name("dj")
	.dwattr $C$DW$226, DW_AT_type(*$C$DW$T$136)
	.dwattr $C$DW$226, DW_AT_location[DW_OP_reg11]
;* A1    assigned to $O$R2
;* A2    assigned to $O$R1
;* A2    assigned to $O$v2
;* A4    assigned to $O$v3
;* A3    assigned to $O$v3
;* A2    assigned to $O$v3
;* A1    assigned to $O$v3
;* A3    assigned to $O$PRE$u8x4$065
	.dwcfi	cfa_offset, 0
        PUSH      {V1, V2, V3, V4, V5, V6, V7, V8, LR} ; [DPU_3_PIPE] 
	.dwcfi	cfa_offset, 36
	.dwcfi	save_reg_to_mem, 14, -4
	.dwcfi	save_reg_to_mem, 11, -8
	.dwcfi	save_reg_to_mem, 10, -12
	.dwcfi	save_reg_to_mem, 9, -16
	.dwcfi	save_reg_to_mem, 8, -20
	.dwcfi	save_reg_to_mem, 7, -24
	.dwcfi	save_reg_to_mem, 6, -28
	.dwcfi	save_reg_to_mem, 5, -32
	.dwcfi	save_reg_to_mem, 4, -36
        MOV       V8, A1                ; [DPU_3_PIPE] |1140| 
	.dwpsn	file "../utils/ff.c",line 1146,column 2,is_stmt,isa 1
        LDRH      A1, [V8, #6]          ; [DPU_3_PIPE] |1146| 
	.dwpsn	file "../utils/ff.c",line 1140,column 1,is_stmt,isa 1
        MOV       V4, A2                ; [DPU_3_PIPE] |1140| 
        SUB       SP, SP, #12           ; [DPU_3_PIPE] 
	.dwcfi	cfa_offset, 48
	.dwpsn	file "../utils/ff.c",line 1146,column 2,is_stmt,isa 1
        ADDS      A1, A1, #1            ; [DPU_3_PIPE] |1146| 
        UXTH      A1, A1                ; [DPU_3_PIPE] |1146| 
        CMP       A1, #0                ; [DPU_3_PIPE] |1146| 
        STR       A1, [SP, #0]          ; [DPU_3_PIPE] |1146| 
        BEQ       ||$C$L147||           ; [DPU_3_PIPE] |1146| 
        ; BRANCHCC OCCURS {||$C$L147||}  ; [] |1146| 
;* --------------------------------------------------------------------------*
	.dwpsn	file "../utils/ff.c",line 1147,column 2,is_stmt,isa 1
        LDR       A1, [V8, #16]         ; [DPU_3_PIPE] |1147| 
        CBZ       A1, ||$C$L147||       ; [] 
        ; BRANCHCC OCCURS {||$C$L147||}  ; [] |1147| 
;* --------------------------------------------------------------------------*
        LDR       A2, [SP, #0]          ; [DPU_3_PIPE] 
	.dwpsn	file "../utils/ff.c",line 1150,column 2,is_stmt,isa 1
        TST       A2, #15               ; [DPU_3_PIPE] |1150| 
        BNE       ||$C$L164||           ; [DPU_3_PIPE] |1150| 
        ; BRANCHCC OCCURS {||$C$L164||}  ; [] |1150| 
;* --------------------------------------------------------------------------*
	.dwpsn	file "../utils/ff.c",line 1151,column 3,is_stmt,isa 1
        ADDS      A1, A1, #1            ; [DPU_3_PIPE] |1151| 
	.dwpsn	file "../utils/ff.c",line 1153,column 3,is_stmt,isa 1
        LDR       A2, [V8, #12]         ; [DPU_3_PIPE] |1153| 
	.dwpsn	file "../utils/ff.c",line 1151,column 3,is_stmt,isa 1
        STR       A1, [V8, #16]         ; [DPU_3_PIPE] |1151| 
        CBNZ      A2, ||$C$L146||       ; [] 
	.dwpsn	file "../utils/ff.c",line 1153,column 3,is_stmt,isa 1
        ; BRANCHCC OCCURS {||$C$L146||}  ; [] |1153| 
;* --------------------------------------------------------------------------*
	.dwpsn	file "../utils/ff.c",line 1154,column 4,is_stmt,isa 1
        LDR       A1, [V8, #0]          ; [DPU_3_PIPE] |1154| 
        LDR       A2, [SP, #0]          ; [DPU_3_PIPE] |1154| 
        LDRH      A3, [A1, #8]          ; [DPU_3_PIPE] |1154| 
        CMP       A3, A2                ; [DPU_3_PIPE] |1154| 
        BLE       ||$C$L147||           ; [DPU_3_PIPE] |1154| 
        ; BRANCHCC OCCURS {||$C$L147||}  ; [] |1154| 
;* --------------------------------------------------------------------------*
        B         ||$C$L165||           ; [DPU_3_PIPE] |1154| 
        ; BRANCH OCCURS {||$C$L165||}    ; [] |1154| 
;* --------------------------------------------------------------------------*
	.align	8
||$C$L146||:    
	.dwpsn	file "../utils/ff.c",line 1158,column 4,is_stmt,isa 1
        LDR       A1, [V8, #0]          ; [DPU_3_PIPE] |1158| 
        LDR       A4, [SP, #0]          ; [DPU_3_PIPE] |1158| 
        LDRB      A3, [A1, #2]          ; [DPU_3_PIPE] |1158| 
        SUBS      A3, A3, #1            ; [DPU_3_PIPE] |1158| 
        TST       A3, A4, ASR #4        ; [DPU_3_PIPE] |1158| 
        BNE       ||$C$L165||           ; [DPU_3_PIPE] |1158| 
        ; BRANCHCC OCCURS {||$C$L165||}  ; [] |1158| 
;* --------------------------------------------------------------------------*
	.dwpsn	file "../utils/ff.c",line 1159,column 5,is_stmt,isa 1
$C$DW$227	.dwtag  DW_TAG_TI_branch
	.dwattr $C$DW$227, DW_AT_low_pc(0x00)
	.dwattr $C$DW$227, DW_AT_name("get_fat")
	.dwattr $C$DW$227, DW_AT_TI_call
        BL        get_fat               ; [DPU_3_PIPE] |1159| 
        ; CALL OCCURS {get_fat }         ; [] |1159| 
        MOV       V3, A1                ; [DPU_3_PIPE] |1159| 
        CMP       V3, #2                ; [DPU_3_PIPE] |1159| 
        BCC       ||$C$L149||           ; [DPU_3_PIPE] |1159| 
        ; BRANCHCC OCCURS {||$C$L149||}  ; [] |1159| 
;* --------------------------------------------------------------------------*
	.dwpsn	file "../utils/ff.c",line 1161,column 5,is_stmt,isa 1
        CMP       V3, #-1               ; [DPU_3_PIPE] |1161| 
        BEQ       ||$C$L155||           ; [DPU_3_PIPE] |1161| 
        ; BRANCHCC OCCURS {||$C$L155||}  ; [] |1161| 
;* --------------------------------------------------------------------------*
	.dwpsn	file "../utils/ff.c",line 1162,column 5,is_stmt,isa 1
        LDR       A1, [V8, #0]          ; [DPU_3_PIPE] |1162| 
        LDR       A2, [A1, #24]         ; [DPU_3_PIPE] |1162| 
        CMP       A2, V3                ; [DPU_3_PIPE] |1162| 
        BHI       ||$C$L161||           ; [DPU_3_PIPE] |1162| 
        ; BRANCHCC OCCURS {||$C$L161||}  ; [] |1162| 
;* --------------------------------------------------------------------------*
        CBNZ      V4, ||$C$L148||       ; [] 
	.dwpsn	file "../utils/ff.c",line 1165,column 6,is_stmt,isa 1
        ; BRANCHCC OCCURS {||$C$L148||}  ; [] |1165| 
;* --------------------------------------------------------------------------*
||$C$L147||:    
	.dwpsn	file "../utils/ff.c",line 1165,column 20,is_stmt,isa 1
        MOVS      A1, #4                ; [DPU_3_PIPE] |1165| 
        B         ||$C$L166||           ; [DPU_3_PIPE] |1165| 
        ; BRANCH OCCURS {||$C$L166||}    ; [] |1165| 
;* --------------------------------------------------------------------------*
	.align	8
||$C$L148||:    
	.dwpsn	file "../utils/ff.c",line 1166,column 6,is_stmt,isa 1
        LDR       A2, [V8, #12]         ; [DPU_3_PIPE] |1166| 
$C$DW$228	.dwtag  DW_TAG_TI_branch
	.dwattr $C$DW$228, DW_AT_low_pc(0x00)
	.dwattr $C$DW$228, DW_AT_name("create_chain")
	.dwattr $C$DW$228, DW_AT_TI_call
        BL        create_chain          ; [DPU_3_PIPE] |1166| 
        ; CALL OCCURS {create_chain }    ; [] |1166| 
        MOVS      V3, A1                ; [DPU_3_PIPE] |1166| 
        IT        EQ                    ; [DPU_3_PIPE] 
	.dwpsn	file "../utils/ff.c",line 1167,column 21,is_stmt,isa 1
        MOVEQ     A1, #7                ; [DPU_3_PIPE] |1167| 
        BEQ       ||$C$L166||           ; [DPU_3_PIPE] |1167| 
        ; BRANCHCC OCCURS {||$C$L166||}  ; [] |1167| 
;* --------------------------------------------------------------------------*
	.dwpsn	file "../utils/ff.c",line 1168,column 6,is_stmt,isa 1
        CMP       V3, #1                ; [DPU_3_PIPE] |1168| 
        BNE       ||$C$L150||           ; [DPU_3_PIPE] |1168| 
        ; BRANCHCC OCCURS {||$C$L150||}  ; [] |1168| 
;* --------------------------------------------------------------------------*
||$C$L149||:    
	.dwpsn	file "../utils/ff.c",line 1168,column 21,is_stmt,isa 1
        MOVS      A1, #2                ; [DPU_3_PIPE] |1168| 
        B         ||$C$L166||           ; [DPU_3_PIPE] |1168| 
        ; BRANCH OCCURS {||$C$L166||}    ; [] |1168| 
;* --------------------------------------------------------------------------*
	.align	8
||$C$L150||:    
	.dwpsn	file "../utils/ff.c",line 1169,column 6,is_stmt,isa 1
        CMP       V3, #-1               ; [DPU_3_PIPE] |1169| 
        BEQ       ||$C$L155||           ; [DPU_3_PIPE] |1169| 
        ; BRANCHCC OCCURS {||$C$L155||}  ; [] |1169| 
;* --------------------------------------------------------------------------*
	.dwpsn	file "../utils/ff.c",line 1171,column 6,is_stmt,isa 1
        LDR       A1, [V8, #0]          ; [DPU_3_PIPE] |1171| 
$C$DW$229	.dwtag  DW_TAG_TI_branch
	.dwattr $C$DW$229, DW_AT_low_pc(0x00)
	.dwattr $C$DW$229, DW_AT_name("sync_window")
	.dwattr $C$DW$229, DW_AT_TI_call
        BL        sync_window           ; [DPU_3_PIPE] |1171| 
        ; CALL OCCURS {sync_window }     ; [] |1171| 
        CMP       A1, #0                ; [DPU_3_PIPE] |1171| 
        BNE       ||$C$L155||           ; [DPU_3_PIPE] |1171| 
        ; BRANCHCC OCCURS {||$C$L155||}  ; [] |1171| 
;* --------------------------------------------------------------------------*
	.dwpsn	file "../utils/ff.c",line 557,column 10,is_stmt,isa 1
        LDR       A2, [V8, #0]          ; [DPU_3_PIPE] |557| 
        MVN       A3, #-1               ; [DPU_3_PIPE] 
	.dwpsn	file "../utils/ff.c",line 1172,column 6,is_stmt,isa 1
        MOV       A1, #512              ; [DPU_3_PIPE] |1172| 
	.dwpsn	file "../utils/ff.c",line 557,column 10,is_stmt,isa 1
        ADDS      A2, A2, #52           ; [DPU_3_PIPE] |557| 
;* --------------------------------------------------------------------------*
;*   BEGIN LOOP ||$C$L151||
;*
;*   Loop source line                : 559
;*   Loop closing brace source line  : 560
;*   Loop Unroll Multiple            : 4x
;*   Known Minimum Trip Count        : 128
;*   Known Maximum Trip Count        : 128
;*   Known Max Trip Count Factor     : 128
;* --------------------------------------------------------------------------*
	.align	8
||$C$L151||:    
	.dwpsn	file "../utils/ff.c",line 559,column 2,is_stmt,isa 1
        SUBS      A1, A1, #4            ; [DPU_3_PIPE] |559| 
	.dwpsn	file "../utils/ff.c",line 560,column 3,is_stmt,isa 1
        STR       A3, [A2], #4          ; [DPU_3_PIPE] |560| 
	.dwpsn	file "../utils/ff.c",line 559,column 2,is_stmt,isa 1
        BNE       ||$C$L151||           ; [DPU_3_PIPE] |559| 
        ; BRANCHCC OCCURS {||$C$L151||}  ; [] |559| 
;* --------------------------------------------------------------------------*
	.dwpsn	file "../utils/ff.c",line 1173,column 6,is_stmt,isa 1
        LDR       A2, [V8, #0]          ; [DPU_3_PIPE] |1173| 
	.dwpsn	file "../utils/ff.c",line 830,column 2,is_stmt,isa 1
        LDR       A1, [A2, #24]         ; [DPU_3_PIPE] |830| 
        SUBS      A3, V3, #2            ; [DPU_3_PIPE] |830| 
	.dwpsn	file "../utils/ff.c",line 1173,column 6,is_stmt,isa 1
        ADD       A4, A2, #48           ; [DPU_3_PIPE] |1173| 
	.dwpsn	file "../utils/ff.c",line 830,column 2,is_stmt,isa 1
        SUBS      A1, A1, #2            ; [DPU_3_PIPE] |830| 
        CMP       A1, A3                ; [DPU_3_PIPE] |830| 
        BLS       ||$C$L152||           ; [DPU_3_PIPE] |830| 
        ; BRANCHCC OCCURS {||$C$L152||}  ; [] |830| 
;* --------------------------------------------------------------------------*
	.dwpsn	file "../utils/ff.c",line 831,column 2,is_stmt,isa 1
        LDRB      A1, [A2, #2]          ; [DPU_3_PIPE] |831| 
        LDR       A2, [A2, #44]         ; [DPU_3_PIPE] |831| 
        MLA       A1, A3, A1, A2        ; [DPU_3_PIPE] |831| 
        B         ||$C$L153||           ; [DPU_3_PIPE] |831| 
        ; BRANCH OCCURS {||$C$L153||}    ; [] |831| 
;* --------------------------------------------------------------------------*
||$C$L152||:    
	.dwpsn	file "../utils/ff.c",line 830,column 34,is_stmt,isa 1
        MOVS      A1, #0                ; [DPU_3_PIPE] |830| 
;* --------------------------------------------------------------------------*
||$C$L153||:    
	.dwpsn	file "../utils/ff.c",line 1173,column 6,is_stmt,isa 1
        STR       A1, [A4, #0]          ; [DPU_3_PIPE] |1173| 
	.dwpsn	file "../utils/ff.c",line 1174,column 18,is_stmt,isa 1
        LDR       A2, [V8, #0]          ; [DPU_3_PIPE] |1174| 
        LDRB      A1, [A2, #2]          ; [DPU_3_PIPE] |1174| 
	.dwpsn	file "../utils/ff.c",line 1174,column 11,is_stmt,isa 1
        MOV       V6, #0                ; [DPU_3_PIPE] |1174| 
	.dwpsn	file "../utils/ff.c",line 1174,column 18,is_stmt,isa 1
        CMP       A1, #0                ; [DPU_3_PIPE] |1174| 
        ADD       A2, A2, #4            ; [DPU_3_PIPE] |1174| 
        BEQ       ||$C$L160||           ; [DPU_3_PIPE] |1174| 
        ; BRANCHCC OCCURS {||$C$L160||}  ; [] |1174| 
;* --------------------------------------------------------------------------*
        STR       V6, [SP, #4]          ; [DPU_3_PIPE] 
        MOVS      V2, #1                ; [DPU_3_PIPE] 
;* --------------------------------------------------------------------------*
;*   BEGIN LOOP ||$C$L154||
;*
;*   Loop source line                : 1174
;*   Loop closing brace source line  : 1178
;*   Known Minimum Trip Count        : 1
;*   Known Maximum Trip Count        : 4294967295
;*   Known Max Trip Count Factor     : 1
;* --------------------------------------------------------------------------*
	.align	8
||$C$L154||:    
	.dwpsn	file "../utils/ff.c",line 1175,column 7,is_stmt,isa 1
        STRB      V2, [A2, #0]          ; [DPU_3_PIPE] |1175| 
	.dwpsn	file "../utils/ff.c",line 1176,column 7,is_stmt,isa 1
        LDR       A2, [V8, #0]          ; [DPU_3_PIPE] |1176| 
        MOV       V7, A2                ; [DPU_3_PIPE] |1176| 
	.dwpsn	file "../utils/ff.c",line 740,column 2,is_stmt,isa 1
        LDRB      A1, [V7, #4]          ; [DPU_3_PIPE] |740| 
	.dwpsn	file "../utils/ff.c",line 1176,column 7,is_stmt,isa 1
        ADD       A3, A2, #48           ; [DPU_3_PIPE] |1176| 
        CBZ       A1, ||$C$L159||       ; [] 
	.dwpsn	file "../utils/ff.c",line 740,column 2,is_stmt,isa 1
        ; BRANCHCC OCCURS {||$C$L159||}  ; [] |740| 
;* --------------------------------------------------------------------------*
	.dwpsn	file "../utils/ff.c",line 742,column 3,is_stmt,isa 1
        LDRB      A1, [A2, #1]          ; [DPU_3_PIPE] |742| 
	.dwpsn	file "../utils/ff.c",line 741,column 3,is_stmt,isa 1
        LDR       V5, [V7, #48]         ; [DPU_3_PIPE] |741| 
	.dwpsn	file "../utils/ff.c",line 742,column 3,is_stmt,isa 1
        MOV       A4, V2                ; [DPU_3_PIPE] |742| 
        ADDS      A2, A2, #52           ; [DPU_3_PIPE] |742| 
        MOV       A3, V5                ; [DPU_3_PIPE] |742| 
$C$DW$230	.dwtag  DW_TAG_TI_branch
	.dwattr $C$DW$230, DW_AT_low_pc(0x00)
	.dwattr $C$DW$230, DW_AT_name("disk_write")
	.dwattr $C$DW$230, DW_AT_TI_call
        BL        disk_write            ; [DPU_3_PIPE] |742| 
        ; CALL OCCURS {disk_write }      ; [] |742| 
        CBZ       A1, ||$C$L156||       ; [] 
        ; BRANCHCC OCCURS {||$C$L156||}  ; [] |742| 
;* --------------------------------------------------------------------------*
||$C$L155||:    
	.dwpsn	file "../utils/ff.c",line 1176,column 32,is_stmt,isa 1
        MOVS      A1, #1                ; [DPU_3_PIPE] |1176| 
        B         ||$C$L166||           ; [DPU_3_PIPE] |1176| 
        ; BRANCH OCCURS {||$C$L166||}    ; [] |1176| 
;* --------------------------------------------------------------------------*
	.align	8
||$C$L156||:    
	.dwpsn	file "../utils/ff.c",line 745,column 3,is_stmt,isa 1
        LDR       A1, [V7, #36]         ; [DPU_3_PIPE] |745| 
        LDR       A2, [SP, #4]          ; [DPU_3_PIPE] |745| 
        CMP       A1, V5                ; [DPU_3_PIPE] |745| 
	.dwpsn	file "../utils/ff.c",line 744,column 3,is_stmt,isa 1
        STRB      A2, [V7, #4]          ; [DPU_3_PIPE] |744| 
	.dwpsn	file "../utils/ff.c",line 745,column 3,is_stmt,isa 1
        BHI       ||$C$L158||           ; [DPU_3_PIPE] |745| 
        ; BRANCHCC OCCURS {||$C$L158||}  ; [] |745| 
;* --------------------------------------------------------------------------*
        LDR       A2, [V7, #28]         ; [DPU_3_PIPE] |745| 
        ADDS      A1, A1, A2            ; [DPU_3_PIPE] |745| 
        CMP       A1, V5                ; [DPU_3_PIPE] |745| 
        BLS       ||$C$L158||           ; [DPU_3_PIPE] |745| 
        ; BRANCHCC OCCURS {||$C$L158||}  ; [] |745| 
;* --------------------------------------------------------------------------*
	.dwpsn	file "../utils/ff.c",line 746,column 26,is_stmt,isa 1
        LDRB      V4, [V7, #3]          ; [DPU_3_PIPE] |746| 
        CMP       V4, #2                ; [DPU_3_PIPE] |746| 
        BCC       ||$C$L158||           ; [DPU_3_PIPE] |746| 
        ; BRANCHCC OCCURS {||$C$L158||}  ; [] |746| 
;* --------------------------------------------------------------------------*
        ADD       V1, V7, #52           ; [DPU_3_PIPE] 
	.dwpsn	file "../utils/ff.c",line 747,column 5,is_stmt,isa 1
        SUBS      V4, V4, #1            ; [DPU_3_PIPE] |747| 
;* --------------------------------------------------------------------------*
;*   BEGIN LOOP ||$C$L157||
;*
;*   Loop source line                : 746
;*   Loop closing brace source line  : 749
;*   Known Minimum Trip Count        : 1
;*   Known Maximum Trip Count        : 2147483647
;*   Known Max Trip Count Factor     : 1
;* --------------------------------------------------------------------------*
	.align	8
||$C$L157||:    
        LDR       A2, [V7, #28]         ; [DPU_3_PIPE] |747| 
	.dwpsn	file "../utils/ff.c",line 748,column 5,is_stmt,isa 1
        LDRB      A1, [V7, #1]          ; [DPU_3_PIPE] |748| 
	.dwpsn	file "../utils/ff.c",line 747,column 5,is_stmt,isa 1
        ADD       V5, A2, V5            ; [DPU_3_PIPE] |747| 
	.dwpsn	file "../utils/ff.c",line 748,column 5,is_stmt,isa 1
        MOV       A4, V2                ; [DPU_3_PIPE] |748| 
        MOV       A3, V5                ; [DPU_3_PIPE] |748| 
        MOV       A2, V1                ; [DPU_3_PIPE] |748| 
$C$DW$231	.dwtag  DW_TAG_TI_branch
	.dwattr $C$DW$231, DW_AT_low_pc(0x00)
	.dwattr $C$DW$231, DW_AT_name("disk_write")
	.dwattr $C$DW$231, DW_AT_TI_call
        BL        disk_write            ; [DPU_3_PIPE] |748| 
        ; CALL OCCURS {disk_write }      ; [] |748| 
	.dwpsn	file "../utils/ff.c",line 746,column 26,is_stmt,isa 1
        SUBS      V4, V4, #1            ; [DPU_3_PIPE] |746| 
        BNE       ||$C$L157||           ; [DPU_3_PIPE] |746| 
        ; BRANCHCC OCCURS {||$C$L157||}  ; [] |746| 
;* --------------------------------------------------------------------------*
||$C$L158||:    
        LDR       A3, [V8, #0]          ; [DPU_3_PIPE] 
        ADDS      A3, A3, #48           ; [DPU_3_PIPE] 
;* --------------------------------------------------------------------------*
||$C$L159||:    
	.dwpsn	file "../utils/ff.c",line 1177,column 7,is_stmt,isa 1
        LDR       A1, [A3, #0]          ; [DPU_3_PIPE] |1177| 
        ADDS      A1, A1, #1            ; [DPU_3_PIPE] |1177| 
        STR       A1, [A3, #0]          ; [DPU_3_PIPE] |1177| 
	.dwpsn	file "../utils/ff.c",line 1174,column 18,is_stmt,isa 1
        LDR       A1, [V8, #0]          ; [DPU_3_PIPE] |1174| 
        LDRB      A3, [A1, #2]          ; [DPU_3_PIPE] |1174| 
        ADD       V6, V6, #1            ; [DPU_3_PIPE] |1174| 
        UXTB      V6, V6                ; [DPU_3_PIPE] |1174| 
        ADDS      A2, A1, #4            ; [DPU_3_PIPE] |1174| 
        CMP       V6, A3                ; [DPU_3_PIPE] |1174| 
        BLT       ||$C$L154||           ; [DPU_3_PIPE] |1174| 
