******************************************************************************
                  TI ARM Linker Unix v5.2.5                    
******************************************************************************
>> Linked Fri Jul  1 14:37:36 2016

OUTPUT FILE NAME:   <MSP432_EH_VisionSensor_LPM45_test.out>
ENTRY POINT SYMBOL: "_c_int00"  address: 00000b1d


MEMORY CONFIGURATION

         name            origin    length      used     unused   attr    fill
----------------------  --------  ---------  --------  --------  ----  --------
  MAIN                  00000000   00040000  0000109e  0003ef62  R  X
  INFO                  00200000   00004000  00000000  00004000  R  X
  SRAM_CODE             01000000   00010000  00000000  00010000  RW X
  SRAM_DATA             20000000   00010000  00000302  0000fcfe  RW  


SEGMENT ALLOCATION MAP

run origin  load origin   length   init length attrs members
----------  ----------- ---------- ----------- ----- -------
00000000    00000000    000010a0   000010a0    r-x
  00000000    00000000    00000140   00000140    r-- .intvecs
  00000140    00000140    00000cd2   00000cd2    r-x .text
  00000e14    00000e14    0000017c   0000017c    r-- .const
  00000f90    00000f90    00000110   00000110    r-- .cinit
20000000    20000000    00000102   00000000    rw-
  20000000    20000000    00000100   00000000    rw- .data
  20000100    20000100    00000002   00000000    rw- .bss
2000fe00    2000fe00    00000200   00000000    rw-
  2000fe00    2000fe00    00000200   00000000    rw- .stack


SECTION ALLOCATION MAP

 output                                  attributes/
section   page    origin      length       input sections
--------  ----  ----------  ----------   ----------------
.intvecs   0    00000000    00000140     
                  00000000    00000140     startup_msp432p401r_ccs.obj (.intvecs:retain)

.text      0    00000140    00000cd2     
                  00000140    00000354     system_msp432p401r.obj (.text)
                  00000494    00000004     rtsv7M4_T_le_v4SPD16_eabi.lib : pre_init.obj (.text)
                  00000498    00000134     camera.obj (.text)
                  000005cc    00000002     rtsv7M4_T_le_v4SPD16_eabi.lib : _lock.obj (.text)
                  000005ce    00000002     --HOLE-- [fill = 0]
                  000005d0    000000e8     main.obj (.text)
                  000006b8    000000e6     sd_diskio.obj (.text)
                  0000079e    00000002     --HOLE-- [fill = 0]
                  000007a0    0000009c     cypress_fram.obj (.text)
                  0000083c    0000009c     rtsv7M4_T_le_v4SPD16_eabi.lib : memcpy_t2.obj (.text)
                  000008d8    00000098     gpio.obj (.text)
                  00000970    0000007a     rtsv7M4_T_le_v4SPD16_eabi.lib : memset_t2.obj (.text)
                  000009ea    00000002     --HOLE-- [fill = 0]
                  000009ec    0000006c                                   : autoinit.obj (.text)
                  00000a58    00000064     msp432p4xx_driverlib.lib : interrupt.o (.text:Interrupt_enableInterrupt)
                  00000abc    0000005e     rtsv7M4_T_le_v4SPD16_eabi.lib : copy_decompress_rle.obj (.text:decompress:rle24)
                  00000b1a    00000002     --HOLE-- [fill = 0]
                  00000b1c    00000050                                   : boot.obj (.text)
                  00000b6c    0000004c                                   : cpy_tbl.obj (.text)
                  00000bb8    00000048     msp432p4xx_driverlib.lib : gpio.o (.text:GPIO_setAsPeripheralModuleFunctionInputPin)
                  00000c00    00000044     rtsv7M4_T_le_v4SPD16_eabi.lib : exit.obj (.text)
                  00000c44    00000004     --HOLE-- [fill = 0]
                  00000c48    00000034     emu.obj (.text)
                  00000c7c    00000030     msp432p4xx_driverlib.lib : gpio.o (.text:GPIO_setAsInputPinWithPullUpResistor)
                  00000cac    0000002c                              : gpio.o (.text:GPIO_setAsInputPin)
                  00000cd8    00000024                              : gpio.o (.text:GPIO_setAsOutputPin)
                  00000cfc    00000004     --HOLE-- [fill = 0]
                  00000d00    00000022     startup_msp432p401r_ccs.obj (.text)
                  00000d22    00000002     --HOLE-- [fill = 0]
                  00000d24    00000020     msp432p4xx_driverlib.lib : gpio.o (.text:GPIO_interruptEdgeSelect)
                  00000d44    00000018                              : gpio.o (.text:GPIO_clearInterruptFlag)
                  00000d5c    00000018                              : gpio.o (.text:GPIO_setOutputLowOnPin)
                  00000d74    00000018     rtsv7M4_T_le_v4SPD16_eabi.lib : args_main.obj (.text)
                  00000d8c    00000014     msp432p4xx_driverlib.lib : gpio.o (.text:GPIO_enableInterrupt)
                  00000da0    00000014                              : gpio.o (.text:GPIO_setOutputHighOnPin)
                  00000db4    00000014                              : systick.o (.text:SysTick_disableInterrupt)
                  00000dc8    00000014                              : systick.o (.text:SysTick_disableModule)
                  00000ddc    00000010                              : interrupt.o (.text:Interrupt_enableMaster)
                  00000dec    0000000e     rtsv7M4_T_le_v4SPD16_eabi.lib : copy_decompress_none.obj (.text:decompress:none)
                  00000dfa    0000000c     msp432p4xx_driverlib.lib : cpu.o (.text:CPU_cpsie)
                  00000e06    0000000c     rtsv7M4_T_le_v4SPD16_eabi.lib : copy_zero_init.obj (.text:decompress:ZI)

.const     0    00000e14    0000017c     
                  00000e14    0000013a     <whole-program> (.const:.string)
                  00000f4e    00000002     --HOLE-- [fill = 0]
                  00000f50    00000040     msp432p4xx_driverlib.lib : interrupt.o (.const)

.cinit     0    00000f90    00000110     
                  00000f90    000000e7     (.cinit..data.load) [load image, compression = rle]
                  00001077    00000001     --HOLE-- [fill = 0]
                  00001078    0000000c     (__TI_handler_table)
                  00001084    00000004     --HOLE-- [fill = 0]
                  00001088    00000008     (.cinit..bss.load) [load image, compression = zero_init]
                  00001090    00000010     (__TI_cinit_table)

.init_array 
*          0    00000000    00000000     UNINITIALIZED

.data      0    20000000    00000100     UNINITIALIZED
                  20000000    000000a8     sd_diskio.obj (.data)
                  200000a8    00000030     msp432p4xx_driverlib.lib : gpio.o (.data:GPIO_PORT_TO_BASE)
                  200000d8    00000010     camera.obj (.data)
                  200000e8    00000008     rtsv7M4_T_le_v4SPD16_eabi.lib : _lock.obj (.data)
                  200000f0    00000008                                   : exit.obj (.data)
                  200000f8    00000004                                   : stkdepth_vars.obj (.data)
                  200000fc    00000004     system_msp432p401r.obj (.data)

.TI.persistent 
*          0    20000000    00000000     UNINITIALIZED

.bss       0    20000100    00000002     UNINITIALIZED
                  20000100    00000001     (.common:Timer1$4)
                  20000101    00000001     (.common:Timer2$4)

.TI.noinit 
*          0    20000100    00000000     UNINITIALIZED

.stack     0    2000fe00    00000200     UNINITIALIZED
                  2000fe00    00000200     --HOLE--


LINKER GENERATED COPY TABLES

__TI_cinit_table @ 00001090 records: 2, size/record: 8, table size: 16
	.data: load addr=00000f90, load size=000000e7 bytes, run addr=20000000, run size=00000100 bytes, compression=rle
	.bss: load addr=00001088, load size=00000008 bytes, run addr=20000100, run size=00000002 bytes, compression=zero_init


LINKER GENERATED HANDLER TABLE

__TI_handler_table @ 00001078 records: 3, size/record: 4, table size: 12
	index: 0, handler: __TI_decompress_rle24
	index: 1, handler: __TI_decompress_none
	index: 2, handler: __TI_zero_init


GLOBAL SYMBOLS: SORTED ALPHABETICALLY BY Name 

address   name                                      
-------   ----                                      
00000c01  C$$EXIT                                   
00000dfb  CPU_cpsie                                 
00000521  Camera_ADC14_ISR                          
00000509  Camera_disable                            
00000499  Camera_initGPIO                           
00000c49  EMU_init                                  
000007e9  EXTFRAM_initGPIO                          
000007a1  EXTFRAM_powerOff                          
00000d45  GPIO_clearInterruptFlag                   
00000d8d  GPIO_enableInterrupt                      
00000919  GPIO_init                                 
00000d25  GPIO_interruptEdgeSelect                  
000008d9  GPIO_reset                                
00000cad  GPIO_setAsInputPin                        
00000c7d  GPIO_setAsInputPinWithPullUpResistor      
00000cd9  GPIO_setAsOutputPin                       
00000bb9  GPIO_setAsPeripheralModuleFunctionInputPin
00000da1  GPIO_setOutputHighOnPin                   
00000d5d  GPIO_setOutputLowOnPin                    
00000a59  Interrupt_enableInterrupt                 
00000ddd  Interrupt_enableMaster                    
000006b1  PORT4_IRQHandler                          
000006b9  SDcard_disable                            
00000711  SDcard_initGPIO                           
UNDEFED   SHT$$INIT_ARRAY$$Base                     
UNDEFED   SHT$$INIT_ARRAY$$Limit                    
00000779  SysTick_ISR                               
00000db5  SysTick_disableInterrupt                  
00000dc9  SysTick_disableModule                     
200000fc  SystemCoreClock                           
00000231  SystemCoreClockUpdate                     
00000141  SystemInit                                
4000480c  WDTCTL_SYM                                
20010000  __STACK_END                               
00000200  __STACK_SIZE                              
00001090  __TI_CINIT_Base                           
000010a0  __TI_CINIT_Limit                          
00001078  __TI_Handler_Table_Base                   
00001084  __TI_Handler_Table_Limit                  
000009ed  __TI_auto_init                            
200000f0  __TI_cleanup_ptr                          
00000ded  __TI_decompress_none                      
00000abd  __TI_decompress_rle24                     
200000f4  __TI_dtors_ptr                            
00000000  __TI_static_base__                        
00000e07  __TI_zero_init                            
00000971  __aeabi_memclr                            
00000971  __aeabi_memclr4                           
00000971  __aeabi_memclr8                           
0000083d  __aeabi_memcpy                            
0000083d  __aeabi_memcpy4                           
0000083d  __aeabi_memcpy8                           
00000973  __aeabi_memset                            
00000973  __aeabi_memset4                           
00000973  __aeabi_memset8                           
ffffffff  __binit__                                 
ffffffff  __c_args__                                
2000fe00  __stack                                   
00000d75  _args_main                                
00000b1d  _c_int00                                  
200000e8  _lock                                     
000005cd  _nop                                      
00000495  _system_pre_init                          
200000ec  _unlock                                   
00000c05  abort                                     
ffffffff  binit                                     
200000d8  camera_busy                               
00000b6d  copy_in                                   
00000779  disk_timerproc                            
000005d1  enterLPM45                                
00000c0d  exit                                      
20000008  g_psFResultStrings                        
200000dc  image_base                                
00000000  interruptVectors                          
00000621  main                                      
200000f8  main_func_sp                              
200000e0  mask_base                                 
0000083d  memcpy                                    
00000979  memset                                    
200000e4  pixel_counter                             


GLOBAL SYMBOLS: SORTED BY Symbol Address 

address   name                                      
-------   ----                                      
00000000  __TI_static_base__                        
00000000  interruptVectors                          
00000141  SystemInit                                
00000200  __STACK_SIZE                              
00000231  SystemCoreClockUpdate                     
00000495  _system_pre_init                          
00000499  Camera_initGPIO                           
00000509  Camera_disable                            
00000521  Camera_ADC14_ISR                          
000005cd  _nop                                      
000005d1  enterLPM45                                
00000621  main                                      
000006b1  PORT4_IRQHandler                          
000006b9  SDcard_disable                            
00000711  SDcard_initGPIO                           
00000779  SysTick_ISR                               
00000779  disk_timerproc                            
000007a1  EXTFRAM_powerOff                          
000007e9  EXTFRAM_initGPIO                          
0000083d  __aeabi_memcpy                            
0000083d  __aeabi_memcpy4                           
0000083d  __aeabi_memcpy8                           
0000083d  memcpy                                    
000008d9  GPIO_reset                                
00000919  GPIO_init                                 
00000971  __aeabi_memclr                            
00000971  __aeabi_memclr4                           
00000971  __aeabi_memclr8                           
00000973  __aeabi_memset                            
00000973  __aeabi_memset4                           
00000973  __aeabi_memset8                           
00000979  memset                                    
000009ed  __TI_auto_init                            
00000a59  Interrupt_enableInterrupt                 
00000abd  __TI_decompress_rle24                     
00000b1d  _c_int00                                  
00000b6d  copy_in                                   
00000bb9  GPIO_setAsPeripheralModuleFunctionInputPin
00000c01  C$$EXIT                                   
00000c05  abort                                     
00000c0d  exit                                      
00000c49  EMU_init                                  
00000c7d  GPIO_setAsInputPinWithPullUpResistor      
00000cad  GPIO_setAsInputPin                        
00000cd9  GPIO_setAsOutputPin                       
00000d25  GPIO_interruptEdgeSelect                  
00000d45  GPIO_clearInterruptFlag                   
00000d5d  GPIO_setOutputLowOnPin                    
00000d75  _args_main                                
00000d8d  GPIO_enableInterrupt                      
00000da1  GPIO_setOutputHighOnPin                   
00000db5  SysTick_disableInterrupt                  
00000dc9  SysTick_disableModule                     
00000ddd  Interrupt_enableMaster                    
00000ded  __TI_decompress_none                      
00000dfb  CPU_cpsie                                 
00000e07  __TI_zero_init                            
00001078  __TI_Handler_Table_Base                   
00001084  __TI_Handler_Table_Limit                  
00001090  __TI_CINIT_Base                           
000010a0  __TI_CINIT_Limit                          
20000008  g_psFResultStrings                        
200000d8  camera_busy                               
200000dc  image_base                                
200000e0  mask_base                                 
200000e4  pixel_counter                             
200000e8  _lock                                     
200000ec  _unlock                                   
200000f0  __TI_cleanup_ptr                          
200000f4  __TI_dtors_ptr                            
200000f8  main_func_sp                              
200000fc  SystemCoreClock                           
2000fe00  __stack                                   
20010000  __STACK_END                               
4000480c  WDTCTL_SYM                                
ffffffff  __binit__                                 
ffffffff  __c_args__                                
ffffffff  binit                                     
UNDEFED   SHT$$INIT_ARRAY$$Base                     
UNDEFED   SHT$$INIT_ARRAY$$Limit                    

[80 symbols]
